 nandflash

 Timestamp is 531ec5fb (Tue Mar 11 16:14:51 2014)

 Preferred load address is 10000000

 Start         Length     Name                   Class
 0001:00000000 00000004H .CRT$XCA                CODE
 0001:00000004 00000004H .CRT$XCZ                CODE
 0001:00000008 00000004H .CRT$XIA                CODE
 0001:0000000c 00000004H .CRT$XIZ                CODE
 0001:00000010 00000004H .CRT$XPA                CODE
 0001:00000014 00000004H .CRT$XPZ                CODE
 0001:00000018 00000004H .CRT$XTA                CODE
 0001:0000001c 00000004H .CRT$XTZ                CODE
 0001:00000020 00008650H .rdata                  CODE
 0001:00008670 00000026H .rdata$debug            CODE
 0001:00008698 00016478H .text                   CODE
 0001:0001eb10 00000060H .xdata                  CODE
 0001:0001eb70 00000028H .idata$2                CODE
 0001:0001eb98 00000014H .idata$3                CODE
 0001:0001ebac 000000ccH .idata$4                CODE
 0001:0001ec78 00000016H .idata$6                CODE
 0001:0001ec90 00000105H .edata                  CODE
 0002:00000000 000000ccH .idata$5                DATA
 0002:000000d0 00000a40H .data                   DATA
 0002:00000b10 00000168H .bss                    DATA
 0003:00000000 000005c8H .pdata                  DATA

  Address         Publics by Value              Rva+Base       Lib:Object

 0000:00000000       ___safe_se_handler_count   00000000     <absolute>
 0000:00000000       ___safe_se_handler_table   00000000     <absolute>
 0001:00000000       __xc_a                     10001000     corelib0:crt0init.obj
 0001:00000004       __xc_z                     10001004     corelib0:crt0init.obj
 0001:00000008       __xi_a                     10001008     corelib0:crt0init.obj
 0001:0000000c       __xi_z                     1000100c     corelib0:crt0init.obj
 0001:00000010       __xp_a                     10001010     corelib0:crt0init.obj
 0001:00000014       __xp_z                     10001014     corelib0:crt0init.obj
 0001:00000018       __xt_a                     10001018     corelib0:crt0init.obj
 0001:0000001c       __xt_z                     1000101c     corelib0:crt0init.obj
 0001:00000040       ??_C@_1EG@LLAJECHL@?$AAF?$AAL?$AAA?$AAS?$AAH?$AAD?$AAR?$AAV?$AA?4?$AAD?$AAL?$AAL?$AA?3?$AAD?$AAL?$AAL?$AA_?$AAP?$AAR?$AAO?$AAC?$AAE?$AAS?$AAS?$AA_?$AAD?$AAE?$AAT?$AAA?$AAC?$AAH?$AA?5@ 10001040     fal:falmain.obj
 0001:00000088       ??_C@_1EG@FBHCHIJN@?$AAF?$AAL?$AAA?$AAS?$AAH?$AAD?$AAR?$AAV?$AA?4?$AAD?$AAL?$AAL?$AA?3?$AAD?$AAL?$AAL?$AA_?$AAP?$AAR?$AAO?$AAC?$AAE?$AAS?$AAS?$AA_?$AAA?$AAT?$AAT?$AAA?$AAC?$AAH?$AA?5@ 10001088     fal:falmain.obj
 0001:000000d0       ??_C@_1FC@PCFFLEGJ@?$AAF?$AAL?$AAA?$AAS?$AAH?$AAD?$AAR?$AAV?$AA?4?$AAD?$AAL?$AAL?$AA?3?$AAU?$AAn?$AAa?$AAb?$AAl?$AAe?$AA?5?$AAt?$AAo?$AA?5?$AAi?$AAn?$AAi?$AAt?$AAi?$AAa?$AAl?$AAi?$AAz@ 100010d0     fal:falmain.obj
 0001:00000124       ??_C@_1DO@FFKCBNOI@?$AAF?$AAL?$AAA?$AAS?$AAH?$AAD?$AAR?$AAV?$AA?4?$AAD?$AAL?$AAL?$AA?3?$AA?5?$AAO?$AAu?$AAt?$AA?5?$AAo?$AAf?$AA?5?$AAm?$AAe?$AAm?$AAo?$AAr?$AAy?$AA?$CB?$AA?$AN?$AA?6?$AA?$AA@ 10001124     fal:falmain.obj
 0001:00000164       ??_C@_1BO@LKKCNJCL@?$AAU?$AAp?$AAd?$AAa?$AAt?$AAe?$AAR?$AAe?$AAa?$AAd?$AAO?$AAn?$AAl?$AAy?$AA?$AA@ 10001164     fal:falmain.obj
 0001:00000184       ??_C@_1CM@MKLFNJPO@?$AAC?$AAo?$AAm?$AAp?$AAa?$AAc?$AAt?$AAi?$AAo?$AAn?$AAC?$AAr?$AAi?$AAt?$AAP?$AAr?$AAi?$AAo?$AA2?$AA5?$AA6?$AA?$AA@ 10001184     fal:falmain.obj
 0001:000001b0       ??_C@_1CE@MGKNJNOC@?$AAC?$AAo?$AAm?$AAp?$AAa?$AAc?$AAt?$AAi?$AAo?$AAn?$AAP?$AAr?$AAi?$AAo?$AA2?$AA5?$AA6?$AA?$AA@ 100011b0     fal:falmain.obj
 0001:000001d4       ??_C@_1BA@OKEJPPOI@?$AAP?$AAr?$AAo?$AAf?$AAi?$AAl?$AAe?$AA?$AA@ 100011d4     fal:falmain.obj
 0001:000001e4       ??_C@_1CC@KOJKGDIE@?$AAR?$AAe?$AAg?$AAQ?$AAu?$AAe?$AAr?$AAy?$AAV?$AAa?$AAl?$AAu?$AAe?$AAE?$AAx?$AAW?$AA?$AA@ 100011e4     fal:falmain.obj
 0001:00000208       ??_C@_1BE@KMNOGLLC@?$AAF?$AAl?$AAa?$AAs?$AAh?$AAD?$AAi?$AAs?$AAk?$AA?$AA@ 10001208     fal:falmain.obj
 0001:0000021c       ??_C@_1BM@MHOCPMNA@?$AAO?$AAp?$AAe?$AAn?$AAD?$AAe?$AAv?$AAi?$AAc?$AAe?$AAK?$AAe?$AAy?$AA?$AA@ 1000121c     fal:falmain.obj
 0001:00000238       ??_C@_1BI@CJKPFBEK@?$AAc?$AAo?$AAr?$AAe?$AAd?$AAl?$AAl?$AA?4?$AAd?$AAl?$AAl?$AA?$AA@ 10001238     fal:falmain.obj
 0001:00000250       ??_C@_1IA@FOOBNIGG@?$AAF?$AAL?$AAA?$AAS?$AAH?$AAD?$AAR?$AAV?$AA?4?$AAD?$AAL?$AAL?$AA?3?$AAU?$AAn?$AAa?$AAb?$AAl?$AAe?$AA?5?$AAt?$AAo?$AA?5?$AAq?$AAu?$AAe?$AAr?$AAy?$AA?5?$AAF?$AAM?$AAD@ 10001250     fal:falmain.obj
 0001:000002d0       ??_C@_1HM@DGIPEEHI@?$AAF?$AAL?$AAA?$AAS?$AAH?$AAD?$AAR?$AAV?$AA?4?$AAD?$AAL?$AAL?$AA?3?$AAU?$AAn?$AAa?$AAb?$AAl?$AAe?$AA?5?$AAt?$AAo?$AA?5?$AAi?$AAn?$AAi?$AAt?$AAi?$AAa?$AAl?$AAi?$AAz@ 100012d0     fal:falmain.obj
 0001:00000350       ??_C@_1LC@JBLALEJI@?$AAF?$AAL?$AAA?$AAS?$AAH?$AAD?$AAR?$AAV?$AA?4?$AAD?$AAL?$AAL?$AA?3?$AAL?$AAo?$AAc?$AAa?$AAl?$AAA?$AAl?$AAl?$AAo?$AAc?$AA?$CI?$AA?$CJ?$AA?5?$AAf?$AAa?$AAi?$AAl?$AAe?$AAd@ 10001350     fal:falmain.obj
 0001:00000408       ??_C@_1FK@FNONLNGN@?$AA?$CF?$AAs?$AA?3?$AA?5?$AAD?$AAE?$AAB?$AAU?$AAG?$AAC?$AAH?$AAK?$AA?5?$AAf?$AAa?$AAi?$AAl?$AAe?$AAd?$AA?5?$AAi?$AAn?$AA?5?$AAf?$AAi?$AAl?$AAe?$AA?5?$AA?$CF?$AAs?$AA?5?$AAa@ 10001408     fal:falmain.obj
 0001:00000464       ??_C@_1BA@LEPJIIOK@?$AAU?$AAn?$AAk?$AAn?$AAo?$AAw?$AAn?$AA?$AA@ 10001464     fal:falmain.obj
 0001:00000478       ??_C@_1HC@CLALOLCN@?$AAd?$AA?3?$AA?2?$AAy?$AAz?$AAk?$AAi?$AAq?$AAf?$AAe?$AA?2?$AAp?$AAr?$AAi?$AAv?$AAa?$AAt?$AAe?$AA?2?$AAw?$AAi?$AAn?$AAc?$AAe?$AAo?$AAs?$AA?2?$AAD?$AAR?$AAI?$AAV?$AAE@ 10001478     fal:falmain.obj
 0001:000004ec       ??_C@_1CM@CBCIGFOG@?$AAF?$AAL?$AAA?$AAS?$AAH?$AAD?$AAR?$AAV?$AA?4?$AAD?$AAL?$AAL?$AA?3?$AAI?$AAn?$AAi?$AAt?$AA?$CI?$AA?$CJ?$AA?$AN?$AA?6?$AA?$AA@ 100014ec     fal:falmain.obj
 0001:00000518       ??_7XipFal@@6B@            10001518     fal:falmain.obj
 0001:00000534       ??_C@_1BI@FBGIJHPE@?$AAR?$AAe?$AAg?$AAC?$AAl?$AAo?$AAs?$AAe?$AAK?$AAe?$AAy?$AA?$AA@ 10001534     fal:falmain.obj
 0001:00000550       ??_C@_1IC@BINPNKKA@?$AAF?$AAL?$AAA?$AAS?$AAH?$AAD?$AAR?$AAV?$AA?4?$AAD?$AAL?$AAL?$AA?3?$AAU?$AAn?$AAa?$AAb?$AAl?$AAe?$AA?5?$AAt?$AAo?$AA?5?$AAd?$AAe?$AA?9?$AAi?$AAn?$AAi?$AAt?$AAi?$AAa@ 10001550     fal:falmain.obj
 0001:000005d4       ??_C@_1DA@NNMHECP@?$AAF?$AAL?$AAA?$AAS?$AAH?$AAD?$AAR?$AAV?$AA?4?$AAD?$AAL?$AAL?$AA?3?$AAD?$AAe?$AAi?$AAn?$AAi?$AAt?$AA?$CI?$AA?$CJ?$AA?$AN?$AA?6?$AA?$AA@ 100015d4     fal:falmain.obj
 0001:00000604       ??_C@_1CM@CFCLIFOG@?$AAF?$AAL?$AAA?$AAS?$AAH?$AAD?$AAR?$AAV?$AA?4?$AAD?$AAL?$AAL?$AA?3?$AAO?$AAp?$AAe?$AAn?$AA?$CI?$AA?$CJ?$AA?$AN?$AA?6?$AA?$AA@ 10001604     fal:falmain.obj
 0001:00000630       ??_C@_1CO@BPOLIJFM@?$AAF?$AAL?$AAA?$AAS?$AAH?$AAD?$AAR?$AAV?$AA?4?$AAD?$AAL?$AAL?$AA?3?$AAC?$AAl?$AAo?$AAs?$AAe?$AA?$CI?$AA?$CJ?$AA?$AN?$AA?6?$AA?$AA@ 10001630     fal:falmain.obj
 0001:00000660       ??_C@_1CM@JHMGJCOH@?$AAF?$AAL?$AAA?$AAS?$AAH?$AAD?$AAR?$AAV?$AA?4?$AAD?$AAL?$AAL?$AA?3?$AAR?$AAe?$AAa?$AAd?$AA?$CI?$AA?$CJ?$AA?$AN?$AA?6?$AA?$AA@ 10001660     fal:falmain.obj
 0001:0000068c       ??_C@_1CO@LABCEEJF@?$AAF?$AAL?$AAA?$AAS?$AAH?$AAD?$AAR?$AAV?$AA?4?$AAD?$AAL?$AAL?$AA?3?$AAW?$AAr?$AAi?$AAt?$AAe?$AA?$CI?$AA?$CJ?$AA?$AN?$AA?6?$AA?$AA@ 1000168c     fal:falmain.obj
 0001:000006bc       ??_C@_1CM@BDKMDEGM@?$AAF?$AAL?$AAA?$AAS?$AAH?$AAD?$AAR?$AAV?$AA?4?$AAD?$AAL?$AAL?$AA?3?$AAS?$AAe?$AAe?$AAk?$AA?$CI?$AA?$CJ?$AA?$AN?$AA?6?$AA?$AA@ 100016bc     fal:falmain.obj
 0001:000006e8       ??_C@_1FO@MMMPBGFM@?$AAF?$AAL?$AAA?$AAS?$AAH?$AAD?$AAR?$AAV?$AA?4?$AAD?$AAL?$AAL?$AA?3?$AAE?$AAR?$AAR?$AAO?$AAR?$AA?5?$AA?9?$AA?5?$AAG?$AAe?$AAt?$AAP?$AAo?$AAw?$AAe?$AAr?$AAS?$AAt?$AAa@ 100016e8     fal:falmain.obj
 0001:00000748       ??_C@_1FM@CMEPFHDO@?$AAF?$AAL?$AAA?$AAS?$AAH?$AAD?$AAR?$AAV?$AA?4?$AAD?$AAL?$AAL?$AA?3?$AAD?$AAS?$AAK?$AA_?$AAI?$AAO?$AAC?$AAo?$AAn?$AAt?$AAr?$AAo?$AAl?$AA?$CI?$AAI?$AAO?$AAC?$AAT?$AAL@ 10001748     fal:falmain.obj
 0001:000007a8       ??_C@_1FO@JKPHDPLM@?$AAF?$AAL?$AAA?$AAS?$AAH?$AAD?$AAR?$AAV?$AA?4?$AAD?$AAL?$AAL?$AA?3?$AAE?$AAR?$AAR?$AAO?$AAR?$AA?5?$AA?9?$AA?5?$AAS?$AAe?$AAt?$AAP?$AAo?$AAw?$AAe?$AAr?$AAS?$AAt?$AAa@ 100017a8     fal:falmain.obj
 0001:00000808       ??_C@_1FM@FDFBOEEJ@?$AAF?$AAL?$AAA?$AAS?$AAH?$AAD?$AAR?$AAV?$AA?4?$AAD?$AAL?$AAL?$AA?3?$AAD?$AAS?$AAK?$AA_?$AAI?$AAO?$AAC?$AAo?$AAn?$AAt?$AAr?$AAo?$AAl?$AA?$CI?$AAI?$AAO?$AAC?$AAT?$AAL@ 10001808     fal:falmain.obj
 0001:00000868       ??_C@_1GM@NGNMCBOA@?$AAF?$AAL?$AAA?$AAS?$AAH?$AAD?$AAR?$AAV?$AA?4?$AAD?$AAL?$AAL?$AA?3?$AAE?$AAR?$AAR?$AAO?$AAR?$AA?5?$AA?9?$AA?5?$AAG?$AAe?$AAt?$AAP?$AAo?$AAw?$AAe?$AAr?$AAC?$AAa?$AAp@ 10001868     fal:falmain.obj
 0001:000008d8       ??_C@_1GO@FLNAJJDM@?$AAF?$AAL?$AAA?$AAS?$AAH?$AAD?$AAR?$AAV?$AA?4?$AAD?$AAL?$AAL?$AA?3?$AAD?$AAS?$AAK?$AA_?$AAI?$AAO?$AAC?$AAo?$AAn?$AAt?$AAr?$AAo?$AAl?$AA?$CI?$AAI?$AAO?$AAC?$AAT?$AAL@ 100018d8     fal:falmain.obj
 0001:00000948       ??_C@_1HC@BIEOBEPH@?$AAF?$AAL?$AAA?$AAS?$AAH?$AAD?$AAR?$AAV?$AA?4?$AAD?$AAL?$AAL?$AA?3?$AAD?$AAS?$AAK?$AA_?$AAI?$AAO?$AAC?$AAo?$AAn?$AAt?$AAr?$AAo?$AAl?$AA?$CI?$AAI?$AAO?$AAC?$AAT?$AAL@ 10001948     fal:falmain.obj
 0001:000009c0       ??_C@_1GG@HAHELPJP@?$AAF?$AAL?$AAA?$AAS?$AAH?$AAD?$AAR?$AAV?$AA?4?$AAD?$AAL?$AAL?$AA?3?$AAE?$AAR?$AAR?$AAO?$AAR?$AA?5?$AA?9?$AA?5?$AAS?$AAe?$AAt?$AAS?$AAe?$AAc?$AAu?$AAr?$AAe?$AAW?$AAi@ 100019c0     fal:falmain.obj
 0001:00000a28       ??_C@_1HM@NMPGMEFM@?$AAF?$AAL?$AAA?$AAS?$AAH?$AAD?$AAR?$AAV?$AA?4?$AAD?$AAL?$AAL?$AA?3?$AAD?$AAS?$AAK?$AA_?$AAI?$AAO?$AAC?$AAo?$AAn?$AAt?$AAr?$AAo?$AAl?$AA?$CI?$AAI?$AAO?$AAC?$AAT?$AAL@ 10001a28     fal:falmain.obj
 0001:00000aa8       ??_C@_1FI@DNCGAMHO@?$AAF?$AAL?$AAA?$AAS?$AAH?$AAD?$AAR?$AAV?$AA?4?$AAD?$AAL?$AAL?$AA?3?$AAE?$AAR?$AAR?$AAO?$AAR?$AA?5?$AA?9?$AA?5?$AAS?$AAe?$AAc?$AAu?$AAr?$AAe?$AAW?$AAi?$AAp?$AAe?$AA?$CI@ 10001aa8     fal:falmain.obj
 0001:00000b00       ??_C@_1GK@HGDLPAFJ@?$AAF?$AAL?$AAA?$AAS?$AAH?$AAD?$AAR?$AAV?$AA?4?$AAD?$AAL?$AAL?$AA?3?$AAD?$AAS?$AAK?$AA_?$AAI?$AAO?$AAC?$AAo?$AAn?$AAt?$AAr?$AAo?$AAl?$AA?$CI?$AAI?$AAO?$AAC?$AAT?$AAL@ 10001b00     fal:falmain.obj
 0001:00000b70       ??_C@_1FO@FKHOLKLO@?$AAF?$AAL?$AAA?$AAS?$AAH?$AAD?$AAR?$AAV?$AA?4?$AAD?$AAL?$AAL?$AA?3?$AAE?$AAR?$AAR?$AAO?$AAR?$AA?5?$AA?9?$AA?5?$AAD?$AAe?$AAl?$AAe?$AAt?$AAe?$AAS?$AAe?$AAc?$AAt?$AAo@ 10001b70     fal:falmain.obj
 0001:00000bd0       ??_C@_1HA@MONFJBKB@?$AAF?$AAL?$AAA?$AAS?$AAH?$AAD?$AAR?$AAV?$AA?4?$AAD?$AAL?$AAL?$AA?3?$AAD?$AAS?$AAK?$AA_?$AAI?$AAO?$AAC?$AAo?$AAn?$AAt?$AAr?$AAo?$AAl?$AA?$CI?$AAI?$AAO?$AAC?$AAT?$AAL@ 10001bd0     fal:falmain.obj
 0001:00000c40       ??_C@_1GK@JCDIGLJI@?$AAF?$AAL?$AAA?$AAS?$AAH?$AAD?$AAR?$AAV?$AA?4?$AAD?$AAL?$AAL?$AA?3?$AAE?$AAR?$AAR?$AAO?$AAR?$AA?5?$AA?9?$AA?5?$AAU?$AAn?$AAa?$AAb?$AAl?$AAe?$AA?5?$AAt?$AAo?$AA?5?$AAf@ 10001c40     fal:falmain.obj
 0001:00000cb0       ??_C@_1GM@JNDPCPAG@?$AAF?$AAL?$AAA?$AAS?$AAH?$AAD?$AAR?$AAV?$AA?4?$AAD?$AAL?$AAL?$AA?3?$AAD?$AAS?$AAK?$AA_?$AAI?$AAO?$AAC?$AAo?$AAn?$AAt?$AAr?$AAo?$AAl?$AA?$CI?$AAD?$AAI?$AAS?$AAK?$AA_@ 10001cb0     fal:falmain.obj
 0001:00000d20       ??_C@_1GC@EEOLCNGN@?$AAF?$AAL?$AAA?$AAS?$AAH?$AAD?$AAR?$AAV?$AA?4?$AAD?$AAL?$AAL?$AA?3?$AAD?$AAS?$AAK?$AA_?$AAI?$AAO?$AAC?$AAo?$AAn?$AAt?$AAr?$AAo?$AAl?$AA?$CI?$AAD?$AAI?$AAS?$AAK?$AA_@ 10001d20     fal:falmain.obj
 0001:00000d88       ??_C@_1IA@OPAKDMED@?$AAF?$AAL?$AAA?$AAS?$AAH?$AAD?$AAR?$AAV?$AA?4?$AAD?$AAL?$AAL?$AA?3?$AAE?$AAR?$AAR?$AAO?$AAR?$AA?5?$AA?9?$AA?5?$AAU?$AAn?$AAa?$AAb?$AAl?$AAe?$AA?5?$AAt?$AAo?$AA?5?$AAg@ 10001d88     fal:falmain.obj
 0001:00000e08       ??_C@_1GC@LBLNPECM@?$AAF?$AAL?$AAA?$AAS?$AAH?$AAD?$AAR?$AAV?$AA?4?$AAD?$AAL?$AAL?$AA?3?$AAD?$AAS?$AAK?$AA_?$AAI?$AAO?$AAC?$AAo?$AAn?$AAt?$AAr?$AAo?$AAl?$AA?$CI?$AAD?$AAI?$AAS?$AAK?$AA_@ 10001e08     fal:falmain.obj
 0001:00000e70       ??_C@_1EM@NOBLIFAL@?$AAF?$AAL?$AAA?$AAS?$AAH?$AAD?$AAR?$AAV?$AA?4?$AAD?$AAL?$AAL?$AA?3?$AAW?$AAr?$AAi?$AAt?$AAe?$AAT?$AAo?$AAM?$AAe?$AAd?$AAi?$AAa?$AA?$CI?$AA?$CJ?$AA?5?$AAf?$AAa?$AAi?$AAl@ 10001e70     fal:falmain.obj
 0001:00000ec0       ??_C@_1FO@ILLKOIEP@?$AAF?$AAL?$AAA?$AAS?$AAH?$AAD?$AAR?$AAV?$AA?4?$AAD?$AAL?$AAL?$AA?3?$AAD?$AAS?$AAK?$AA_?$AAI?$AAO?$AAC?$AAo?$AAn?$AAt?$AAr?$AAo?$AAl?$AA?$CI?$AAD?$AAI?$AAS?$AAK?$AA_@ 10001ec0     fal:falmain.obj
 0001:00000f20       ??_C@_1EO@FLBPLNHE@?$AAF?$AAL?$AAA?$AAS?$AAH?$AAD?$AAR?$AAV?$AA?4?$AAD?$AAL?$AAL?$AA?3?$AAR?$AAe?$AAa?$AAd?$AAF?$AAr?$AAo?$AAm?$AAM?$AAe?$AAd?$AAi?$AAa?$AA?$CI?$AA?$CJ?$AA?5?$AAf?$AAa?$AAi@ 10001f20     fal:falmain.obj
 0001:00000f70       ??_C@_1FM@KPEGNBMN@?$AAF?$AAL?$AAA?$AAS?$AAH?$AAD?$AAR?$AAV?$AA?4?$AAD?$AAL?$AAL?$AA?3?$AAD?$AAS?$AAK?$AA_?$AAI?$AAO?$AAC?$AAo?$AAn?$AAt?$AAr?$AAo?$AAl?$AA?$CI?$AAD?$AAI?$AAS?$AAK?$AA_@ 10001f70     fal:falmain.obj
 0001:00000fd0       ??_C@_1KI@LHFEGLL@?$AAF?$AAL?$AAA?$AAS?$AAH?$AAD?$AAR?$AAV?$AA?4?$AAD?$AAL?$AAL?$AA?3?$AA?$CF?$AAs?$AA?$CI?$AA?$CJ?$AA?5?$AA?9?$AA?5?$AAS?$AAu?$AAm?$AA?5?$AAo?$AAf?$AA?5?$AAb?$AAu?$AAf?$AAf?$AAe@ 10001fd0     fal:falmain.obj
 0001:00001078       ??_C@_1JG@FFGONMIP@?$AAF?$AAL?$AAA?$AAS?$AAH?$AAD?$AAR?$AAV?$AA?4?$AAD?$AAL?$AAL?$AA?3?$AA?$CF?$AAs?$AA?$CI?$AA?$CJ?$AA?5?$AA?9?$AA?5?$AAS?$AAu?$AAm?$AA?5?$AAo?$AAf?$AA?5?$AAb?$AAu?$AAf?$AAf?$AAe@ 10002078     fal:falmain.obj
 0001:00001110       ??_C@_1IM@DIKDJHMC@?$AAF?$AAL?$AAA?$AAS?$AAH?$AAD?$AAR?$AAV?$AA?4?$AAD?$AAL?$AAL?$AA?5?$AA?9?$AA?5?$AAI?$AAn?$AAt?$AAe?$AAg?$AAe?$AAr?$AA?5?$AAo?$AAv?$AAe?$AAr?$AAf?$AAl?$AAo?$AAw?$AA?5@ 10002110     fal:falmain.obj
 0001:000011a0       ??_C@_1HG@GJOPCDF@?$AAF?$AAL?$AAA?$AAS?$AAH?$AAD?$AAR?$AAV?$AA?4?$AAD?$AAL?$AAL?$AA?3?$AA?$CF?$AAs?$AA?$CI?$AA?$CJ?$AA?5?$AA?9?$AA?5?$AAs?$AAc?$AAa?$AAt?$AAt?$AAe?$AAr?$AA?1?$AAg?$AAa?$AAt?$AAh@ 100021a0     fal:falmain.obj
 0001:00001218       ??_C@_1GI@IKGMKIPF@?$AAF?$AAL?$AAA?$AAS?$AAH?$AAD?$AAR?$AAV?$AA?4?$AAD?$AAL?$AAL?$AA?3?$AA?$CF?$AAs?$AA?$CI?$AA?$CJ?$AA?5?$AA?9?$AA?5?$AAr?$AAe?$AAq?$AAu?$AAe?$AAs?$AAt?$AA?5?$AAr?$AAu?$AAn?$AAs@ 10002218     fal:falmain.obj
 0001:00001280       ??_C@_1FI@FICAHFEB@?$AAF?$AAL?$AAA?$AAS?$AAH?$AAD?$AAR?$AAV?$AA?4?$AAD?$AAL?$AAL?$AA?3?$AA?$CF?$AAs?$AA?$CI?$AA?$CJ?$AA?5?$AA?9?$AA?5?$AAr?$AAe?$AAq?$AAu?$AAe?$AAs?$AAt?$AA?5?$AAf?$AAo?$AAr?$AA?5@ 10002280     fal:falmain.obj
 0001:000012d8       ??_C@_1HO@PNMMFEOO@?$AAF?$AAL?$AAA?$AAS?$AAH?$AAD?$AAR?$AAV?$AA?4?$AAD?$AAL?$AAL?$AA?3?$AA?$CF?$AAs?$AA?$CI?$AA?$CJ?$AA?5?$AA?9?$AA?5?$AAi?$AAn?$AAv?$AAa?$AAl?$AAi?$AAd?$AA?5?$AAp?$AAa?$AAr?$AAa@ 100022d8     fal:falmain.obj
 0001:00001358       ??_C@_1EC@HLLIHEAD@?$AA?5?$AA?5?$AA?5?$AA?5?$AA?5?$AA?5?$AA?5?$AA?5?$AA?5?$AA?5?$AA?5?$AA?5?$AA?5?$AA?5?$AA?5?$AA?5?$AA?5?$AAB?$AAU?$AAF?$AAF?$AA?5?$AAL?$AAE?$AAN?$AA?5?$AA?$DN?$AA?5?$AA?$CF?$AAd?$AA?$AN?$AA?6@ 10002358     fal:falmain.obj
 0001:000013a0       ??_C@_1EC@MNONBPJB@?$AA?5?$AA?5?$AA?5?$AA?5?$AA?5?$AA?5?$AA?5?$AA?5?$AA?5?$AA?5?$AA?5?$AA?5?$AA?5?$AA?$CD?$AA?5?$AAo?$AAf?$AA?5?$AAS?$AAG?$AA?5?$AAb?$AAu?$AAf?$AAs?$AA?5?$AA?$DN?$AA?5?$AA?$CF?$AAd?$AA?$AN?$AA?6@ 100023a0     fal:falmain.obj
 0001:000013e8       ??_C@_1EC@JBCNAEAA@?$AA?5?$AA?5?$AA?5?$AA?5?$AA?5?$AA?5?$AA?5?$AA?5?$AA?5?$AA?5?$AA?5?$AA?5?$AA?5?$AA?$CD?$AA?5?$AAo?$AAf?$AA?5?$AAS?$AAe?$AAc?$AAt?$AAo?$AAr?$AAs?$AA?5?$AA?$DN?$AA?5?$AA?$CF?$AAd?$AA?$AN?$AA?6@ 100023e8     fal:falmain.obj
 0001:00001430       ??_C@_1EC@FPIAJIDI@?$AA?5?$AA?5?$AA?5?$AA?5?$AA?5?$AA?5?$AA?5?$AA?5?$AA?5?$AA?5?$AA?5?$AA?5?$AA?5?$AAS?$AAt?$AAa?$AAr?$AAt?$AA?5?$AAS?$AAe?$AAc?$AAt?$AAo?$AAr?$AA?5?$AA?$DN?$AA?5?$AA?$CF?$AAx?$AA?$AN?$AA?6@ 10002430     fal:falmain.obj
 0001:00001474       ??_C@_1DK@PGEKEEHD@?$AAF?$AAL?$AAA?$AAS?$AAH?$AAD?$AAR?$AAV?$AA?4?$AAD?$AAL?$AAL?$AA?3?$AA?$CF?$AAs?$AA?$CI?$AA?$CJ?$AA?5?$AAr?$AAe?$AAq?$AAu?$AAe?$AAs?$AAt?$AA?4?$AA?$AN?$AA?6?$AA?$AA@ 10002474     fal:falmain.obj
 0001:000014b0       ??_C@_1M@GNJKCMMA@?$AAW?$AAr?$AAi?$AAt?$AAe?$AA?$AA@ 100024b0     fal:falmain.obj
 0001:000014bc       ??_C@_19EOHDNDII@?$AAR?$AAe?$AAa?$AAd?$AA?$AA@ 100024bc     fal:falmain.obj
 0001:000014c8       ??_C@_1HI@CGLEKOIH@?$AAF?$AAL?$AAA?$AAS?$AAH?$AAD?$AAR?$AAV?$AA?4?$AAD?$AAL?$AAL?$AA?3?$AAG?$AAe?$AAt?$AAP?$AAh?$AAy?$AAs?$AAS?$AAe?$AAc?$AAt?$AAo?$AAr?$AAA?$AAd?$AAd?$AAr?$AAe?$AAs@ 100024c8     fal:falmain.obj
 0001:00001540       ??_C@_1MC@PPMHIJCJ@?$AAF?$AAL?$AAA?$AAS?$AAH?$AAD?$AAR?$AAV?$AA?4?$AAD?$AAL?$AAL?$AA?3?$AAR?$AAe?$AAa?$AAd?$AAF?$AAr?$AAo?$AAm?$AAM?$AAe?$AAd?$AAi?$AAa?$AA?$CI?$AA?$CJ?$AA?5?$AA?9?$AA?5?$AAC@ 10002540     fal:falmain.obj
 0001:00001608       ??_C@_1GK@COPAEPIE@?$AAF?$AAL?$AAA?$AAS?$AAH?$AAD?$AAR?$AAV?$AA?4?$AAD?$AAL?$AAL?$AA?3?$AAR?$AAe?$AAa?$AAd?$AAF?$AAr?$AAo?$AAm?$AAM?$AAe?$AAd?$AAi?$AAa?$AA?$CI?$AA?$CJ?$AA?5?$AA?9?$AA?5?$AAG@ 10002608     fal:falmain.obj
 0001:00001678       ??_C@_1MA@PPFIFAGF@?$AAF?$AAL?$AAA?$AAS?$AAH?$AAD?$AAR?$AAV?$AA?4?$AAD?$AAL?$AAL?$AA?3?$AAW?$AAr?$AAi?$AAt?$AAe?$AAT?$AAo?$AAM?$AAe?$AAd?$AAi?$AAa?$AA?$CI?$AA?$CJ?$AA?5?$AA?9?$AA?5?$AAC?$AAe@ 10002678     fal:falmain.obj
 0001:00001738       ??_C@_1GI@JOFODHOC@?$AAF?$AAL?$AAA?$AAS?$AAH?$AAD?$AAR?$AAV?$AA?4?$AAD?$AAL?$AAL?$AA?3?$AAW?$AAr?$AAi?$AAt?$AAe?$AAT?$AAo?$AAM?$AAe?$AAd?$AAi?$AAa?$AA?$CI?$AA?$CJ?$AA?5?$AA?9?$AA?5?$AAG?$AAe@ 10002738     fal:falmain.obj
 0001:000017a0       ??_C@_1GK@EBMEJECM@?$AAF?$AAL?$AAA?$AAS?$AAH?$AAD?$AAR?$AAV?$AA?4?$AAD?$AAL?$AAL?$AA?3?$AAD?$AAe?$AAl?$AAe?$AAt?$AAe?$AAS?$AAe?$AAc?$AAt?$AAo?$AAr?$AAs?$AA?$CI?$AA?$CJ?$AA?5?$AA?9?$AA?5?$AAG@ 100027a0     fal:falmain.obj
 0001:00001810       ??_C@_1GE@ILGCICBA@?$AAF?$AAL?$AAA?$AAS?$AAH?$AAD?$AAR?$AAV?$AA?4?$AAD?$AAL?$AAL?$AA?3?$AAS?$AAe?$AAc?$AAu?$AAr?$AAe?$AAW?$AAi?$AAp?$AAe?$AA?$CI?$AA?$CJ?$AA?5?$AA?9?$AA?5?$AAG?$AAe?$AAt?$AAF@ 10002810     fal:falmain.obj
 0001:00001878       ??_C@_1HC@HFGOOHAB@?$AAF?$AAL?$AAA?$AAS?$AAH?$AAD?$AAR?$AAV?$AA?4?$AAD?$AAL?$AAL?$AA?3?$AAS?$AAe?$AAt?$AAS?$AAe?$AAc?$AAu?$AAr?$AAe?$AAW?$AAi?$AAp?$AAe?$AAF?$AAl?$AAa?$AAg?$AA?$CI?$AA?$CJ@ 10002878     fal:falmain.obj
 0001:000018f0       ??_C@_1JK@FODIIEMI@?$AAF?$AAL?$AAA?$AAS?$AAH?$AAD?$AAR?$AAV?$AA?4?$AAD?$AAL?$AAL?$AA?3?$AAC?$AAa?$AAl?$AAc?$AAu?$AAl?$AAa?$AAt?$AAe?$AAL?$AAo?$AAg?$AAi?$AAc?$AAa?$AAl?$AAR?$AAa?$AAn@ 100028f0     fal:falmain.obj
 0001:00001990       ??_C@_1JE@BLEGFGPC@?$AAF?$AAL?$AAA?$AAS?$AAH?$AAD?$AAR?$AAV?$AA?4?$AAD?$AAL?$AAL?$AA?3?$AAC?$AAa?$AAl?$AAc?$AAu?$AAl?$AAa?$AAt?$AAe?$AAP?$AAh?$AAy?$AAs?$AAR?$AAa?$AAn?$AAg?$AAe?$AA?$CI@ 10002990     fal:falmain.obj
 0001:00001a24       ??_7Fal@@6B@               10002a24     fal:fal.obj
 0001:00001a40       ??_C@_1GO@IPJJNJKJ@?$AAF?$AAL?$AAA?$AAS?$AAH?$AAD?$AAR?$AAV?$AA?4?$AAF?$AAo?$AAr?$AAm?$AAa?$AAt?$AAM?$AAe?$AAd?$AAi?$AAa?$AA?$CI?$AA?$CJ?$AA?5?$AA?9?$AA?5?$AAF?$AAM?$AAD?$AA_?$AAM?$AAa?$AAr@ 10002a40     fal:fal.obj
 0001:00001ab0       ??_C@_1HC@LGPJLIDA@?$AAF?$AAL?$AAA?$AAS?$AAH?$AAD?$AAR?$AAV?$AA?4?$AAD?$AAL?$AAL?$AA?3?$AAF?$AAo?$AAr?$AAm?$AAa?$AAt?$AAM?$AAe?$AAd?$AAi?$AAa?$AA?$CI?$AA?$CJ?$AA?5?$AA?9?$AA?5?$AAF?$AAM?$AAD@ 10002ab0     fal:fal.obj
 0001:00001b28       ??_C@_1GK@OJDHIPJI@?$AAd?$AA?3?$AA?2?$AAy?$AAz?$AAk?$AAi?$AAq?$AAf?$AAe?$AA?2?$AAp?$AAr?$AAi?$AAv?$AAa?$AAt?$AAe?$AA?2?$AAw?$AAi?$AAn?$AAc?$AAe?$AAo?$AAs?$AA?2?$AAD?$AAR?$AAI?$AAV?$AAE@ 10002b28     fal:fal.obj
 0001:00001b98       ??_C@_1FA@BMLNGHEM@?$AAF?$AAL?$AAA?$AAS?$AAH?$AAD?$AAR?$AAV?$AA?4?$AAD?$AAL?$AAL?$AA?3?$AAF?$AAM?$AAD?$AA_?$AAR?$AAe?$AAa?$AAd?$AAS?$AAe?$AAc?$AAt?$AAo?$AAr?$AA?$CI?$AA?$CJ?$AA?5?$AAf?$AAa@ 10002b98     fal:fal.obj
 0001:00001be8       ??_C@_1KA@CNDGOPON@?$AAF?$AAL?$AAA?$AAS?$AAH?$AAD?$AAR?$AAV?$AA?4?$AAD?$AAL?$AAL?$AA?3?$AAR?$AAe?$AAa?$AAd?$AAF?$AAr?$AAo?$AAm?$AAM?$AAe?$AAd?$AAi?$AAa?$AA?$CI?$AA?$CJ?$AA?5?$AA?9?$AA?5?$AAl@ 10002be8     fal:fal.obj
 0001:00001c88       ??_C@_1MO@OLAAEINA@?$AAF?$AAL?$AAA?$AAS?$AAH?$AAD?$AAR?$AAV?$AA?4?$AAD?$AAL?$AAL?$AA?3?$AAR?$AAe?$AAa?$AAd?$AAF?$AAr?$AAo?$AAm?$AAM?$AAe?$AAd?$AAi?$AAa?$AA?$CI?$AA?$CJ?$AA?5?$AA?9?$AA?5?$AAU@ 10002c88     fal:fal.obj
 0001:00001d58       ??_C@_1FE@GNIKMNDM@?$AA?$CF?$AAM?$AAS?$AAF?$AAL?$AAA?$AAS?$AAH?$AA?$CB?$AAR?$AAe?$AAa?$AAd?$AAS?$AAe?$AAc?$AAt?$AAo?$AAr?$AAs?$AA?5?$AA?9?$AA?5?$AAS?$AAt?$AAa?$AAr?$AAt?$AA?3?$AA?5?$AA?$CF?$AAd@ 10002d58     fal:fal.obj
 0001:00001db0       ??_C@_1HO@JFJNBNNP@?$AAF?$AAL?$AAA?$AAS?$AAH?$AAD?$AAR?$AAV?$AA?4?$AAD?$AAL?$AAL?$AA?3?$AAW?$AAr?$AAi?$AAt?$AAe?$AAT?$AAo?$AAM?$AAe?$AAd?$AAi?$AAa?$AA?$CI?$AA?$CJ?$AA?5?$AA?9?$AA?5?$AAI?$AAn@ 10002db0     fal:fal.obj
 0001:00001e30       ??_C@_1FG@MKOHFEFK@?$AA?$CF?$AAM?$AAS?$AAF?$AAL?$AAA?$AAS?$AAH?$AA?$CB?$AAW?$AAr?$AAi?$AAt?$AAe?$AAS?$AAe?$AAc?$AAt?$AAo?$AAr?$AAs?$AA?5?$AA?9?$AA?5?$AAS?$AAt?$AAa?$AAr?$AAt?$AA?3?$AA?5?$AA?$CF@ 10002e30     fal:fal.obj
 0001:00001e88       ??_C@_1NA@GMPIEKOK@?$AAF?$AAL?$AAA?$AAS?$AAH?$AAD?$AAR?$AAV?$AA?4?$AAD?$AAL?$AAL?$AA?3?$AAS?$AAt?$AAa?$AAr?$AAt?$AAu?$AAp?$AAF?$AAA?$AAL?$AA?$CI?$AA?$CJ?$AA?5?$AA?9?$AA?5?$AAU?$AAn?$AAa?$AAb@ 10002e88     fal:fal.obj
 0001:00001f58       ??_C@_1JO@HBFDODJF@?$AAF?$AAL?$AAA?$AAS?$AAH?$AAD?$AAR?$AAV?$AA?4?$AAD?$AAL?$AAL?$AA?3?$AAS?$AAt?$AAa?$AAr?$AAt?$AAu?$AAp?$AAF?$AAA?$AAL?$AA?$CI?$AA?$CJ?$AA?5?$AA?9?$AA?5?$AAU?$AAn?$AAa?$AAb@ 10002f58     fal:fal.obj
 0001:00001ff8       ??_C@_1IK@LNMLNGFO@?$AAF?$AAL?$AAA?$AAS?$AAH?$AAD?$AAR?$AAV?$AA?4?$AAD?$AAL?$AAL?$AA?3?$AAS?$AAh?$AAu?$AAt?$AAd?$AAo?$AAw?$AAn?$AAF?$AAA?$AAL?$AA?$CI?$AA?$CJ?$AA?5?$AA?9?$AA?5?$AAU?$AAn?$AAa@ 10002ff8     fal:fal.obj
 0001:00002088       ??_C@_1KE@PCNNKGNP@?$AAF?$AAL?$AAA?$AAS?$AAH?$AAD?$AAR?$AAV?$AA?4?$AAD?$AAL?$AAL?$AA?3?$AAS?$AAh?$AAu?$AAt?$AAd?$AAo?$AAw?$AAn?$AAF?$AAA?$AAL?$AA?$CI?$AA?$CJ?$AA?5?$AA?9?$AA?5?$AAU?$AAn?$AAa@ 10003088     fal:fal.obj
 0001:00002130       ??_C@_1IE@JPFMEJNK@?$AAF?$AAL?$AAA?$AAS?$AAH?$AAD?$AAR?$AAV?$AA?4?$AAD?$AAL?$AAL?$AA?3?$AAS?$AAt?$AAa?$AAr?$AAt?$AAu?$AAp?$AAF?$AAA?$AAL?$AA?$CI?$AA?$CJ?$AA?5?$AA?9?$AA?5?$AAU?$AAn?$AAa?$AAb@ 10003130     fal:fal.obj
 0001:000021b8       ??_C@_1MI@BJBKJOFI@?$AAF?$AAL?$AAA?$AAS?$AAH?$AAD?$AAR?$AAV?$AA?4?$AAD?$AAL?$AAL?$AA?3?$AAB?$AAu?$AAi?$AAl?$AAd?$AAu?$AAp?$AAM?$AAa?$AAp?$AAp?$AAi?$AAn?$AAg?$AAI?$AAn?$AAf?$AAo?$AA?$CI@ 100031b8     fal:fal.obj
 0001:00002280       ??_C@_1IO@HJPIOGFA@?$AAF?$AAL?$AAA?$AAS?$AAH?$AAD?$AAR?$AAV?$AA?4?$AAD?$AAL?$AAL?$AA?3?$AAB?$AAu?$AAi?$AAl?$AAd?$AAu?$AAp?$AAM?$AAa?$AAp?$AAp?$AAi?$AAn?$AAg?$AAI?$AAn?$AAf?$AAo?$AA?$CI@ 10003280     fal:fal.obj
 0001:00002310       ??_C@_1JK@MAMOENHO@?$AAF?$AAL?$AAA?$AAS?$AAH?$AAD?$AAR?$AAV?$AA?4?$AAD?$AAL?$AAL?$AA?3?$AAB?$AAu?$AAi?$AAl?$AAd?$AAu?$AAp?$AAM?$AAa?$AAp?$AAp?$AAi?$AAn?$AAg?$AAI?$AAn?$AAf?$AAo?$AA?$CI@ 10003310     fal:fal.obj
 0001:000023b0       ??_C@_1KA@MFAOAFEG@?$AAF?$AAL?$AAA?$AAS?$AAH?$AAD?$AAR?$AAV?$AA?4?$AAD?$AAL?$AAL?$AA?3?$AAB?$AAu?$AAi?$AAl?$AAd?$AAu?$AAp?$AAM?$AAa?$AAp?$AAp?$AAi?$AAn?$AAg?$AAI?$AAn?$AAf?$AAo?$AA?$CI@ 100033b0     fal:fal.obj
 0001:00002450       ??_C@_1FM@CIKPDLP@?$AAF?$AAL?$AAA?$AAS?$AAH?$AAD?$AAR?$AAV?$AA?4?$AAD?$AAL?$AAL?$AA?3?$AAB?$AAu?$AAi?$AAl?$AAd?$AAu?$AAp?$AAM?$AAa?$AAp?$AAp?$AAi?$AAn?$AAg?$AAI?$AAn?$AAf?$AAo?$AA?$CI@ 10003450     fal:fal.obj
 0001:000024ac       ??_C@_17NHJDOBIM@?$AA?$CF?$AAd?$AA?6?$AA?$AA@ 100034ac     fal:fal.obj
 0001:000024b8       ??_C@_1IC@DHGJHFNB@?$AAF?$AAL?$AAA?$AAS?$AAH?$AAD?$AAR?$AAV?$AA?4?$AAD?$AAL?$AAL?$AA?3?$AAW?$AAr?$AAi?$AAt?$AAe?$AAX?$AAI?$AAP?$AAS?$AAe?$AAc?$AAt?$AAo?$AAr?$AAs?$AA?$CI?$AA?$CJ?$AA?5?$AA?9@ 100034b8     fal:fal.obj
 0001:00002540       ??_C@_1IA@BCGJPKKH@?$AAF?$AAL?$AAA?$AAS?$AAH?$AAD?$AAR?$AAV?$AA?4?$AAD?$AAL?$AAL?$AA?3?$AAW?$AAr?$AAi?$AAt?$AAe?$AAX?$AAI?$AAP?$AAS?$AAe?$AAc?$AAt?$AAo?$AAr?$AAs?$AA?$CI?$AA?$CJ?$AA?5?$AA?9@ 10003540     fal:fal.obj
 0001:000025c0       ??_C@_1IA@HHEGADFG@?$AAF?$AAL?$AAA?$AAS?$AAH?$AAD?$AAR?$AAV?$AA?4?$AAD?$AAL?$AAL?$AA?3?$AAW?$AAr?$AAi?$AAt?$AAe?$AAX?$AAI?$AAP?$AAS?$AAe?$AAc?$AAt?$AAo?$AAr?$AAs?$AA?$CI?$AA?$CJ?$AA?5?$AA?9@ 100035c0     fal:fal.obj
 0001:00002640       ??_C@_1LE@GDBLGPLF@?$AAF?$AAL?$AAA?$AAS?$AAH?$AAD?$AAR?$AAV?$AA?4?$AAD?$AAL?$AAL?$AA?3?$AAW?$AAr?$AAi?$AAt?$AAe?$AAX?$AAI?$AAP?$AAS?$AAe?$AAc?$AAt?$AAo?$AAr?$AAs?$AA?$CI?$AA?$CJ?$AA?5?$AA?9@ 10003640     fal:fal.obj
 0001:000026f4       ??_7FileSysFal@@6B@        100036f4     fal:fal.obj
 0001:00002710       ??_C@_1II@KDDKDAPJ@?$AAF?$AAL?$AAA?$AAS?$AAH?$AAD?$AAR?$AAV?$AA?4?$AAD?$AAL?$AAL?$AA?3?$AAS?$AAt?$AAa?$AAr?$AAt?$AAu?$AAp?$AAF?$AAA?$AAL?$AA?$CI?$AA?$CJ?$AA?5?$AA?9?$AA?5?$AAU?$AAn?$AAa?$AAb@ 10003710     fal:fal.obj
 0001:00002798       ??_C@_1II@ILCMNNB@?$AAF?$AAL?$AAA?$AAS?$AAH?$AAD?$AAR?$AAV?$AA?4?$AAD?$AAL?$AAL?$AA?3?$AAS?$AAh?$AAu?$AAt?$AAd?$AAo?$AAw?$AAn?$AAF?$AAA?$AAL?$AA?$CI?$AA?$CJ?$AA?5?$AA?9?$AA?5?$AAU?$AAn?$AAa@ 10003798     fal:fal.obj
 0001:00002820       ??_C@_1LC@GKANCCPK@?$AAF?$AAL?$AAA?$AAS?$AAH?$AAD?$AAR?$AAV?$AA?4?$AAD?$AAL?$AAL?$AA?3?$AAB?$AAu?$AAi?$AAl?$AAd?$AAu?$AAp?$AAM?$AAa?$AAp?$AAp?$AAi?$AAn?$AAg?$AAI?$AAn?$AAf?$AAo?$AA?$CI@ 10003820     fal:fal.obj
 0001:000028d8       ??_C@_1LE@DNCPNNHO@?$AAF?$AAL?$AAA?$AAS?$AAH?$AAD?$AAR?$AAV?$AA?4?$AAD?$AAL?$AAL?$AA?3?$AAB?$AAu?$AAi?$AAl?$AAd?$AAu?$AAp?$AAM?$AAa?$AAp?$AAp?$AAi?$AAn?$AAg?$AAI?$AAn?$AAf?$AAo?$AA?$CI@ 100038d8     fal:fal.obj
 0001:00002990       ??_C@_1PA@KCPNGOFJ@?$AAF?$AAL?$AAA?$AAS?$AAH?$AAD?$AAR?$AAV?$AA?4?$AAD?$AAL?$AAL?$AA?3?$AAB?$AAu?$AAi?$AAl?$AAd?$AAu?$AAp?$AAM?$AAa?$AAp?$AAp?$AAi?$AAn?$AAg?$AAI?$AAn?$AAf?$AAo?$AA?$CI@ 10003990     fal:fal.obj
 0001:00002a80       ??_C@_1BIK@JDDDGEPB@?$AAF?$AAL?$AAA?$AAS?$AAH?$AAD?$AAR?$AAV?$AA?4?$AAD?$AAL?$AAL?$AA?3?$AAB?$AAu?$AAi?$AAl?$AAd?$AAu?$AAp?$AAM?$AAa?$AAp?$AAp?$AAi?$AAn?$AAg?$AAI?$AAn?$AAf?$AAo?$AA?$CI@ 10003a80     fal:fal.obj
 0001:00002c10       ??_C@_1JC@EAAGFDCO@?$AAF?$AAL?$AAA?$AAS?$AAH?$AAD?$AAR?$AAV?$AA?4?$AAD?$AAL?$AAL?$AA?3?$AAB?$AAu?$AAi?$AAl?$AAd?$AAu?$AAp?$AAM?$AAa?$AAp?$AAp?$AAi?$AAn?$AAg?$AAI?$AAn?$AAf?$AAo?$AA?$CI@ 10003c10     fal:fal.obj
 0001:00002ca8       ??_C@_1JA@CJDHKHNK@?$AAF?$AAL?$AAA?$AAS?$AAH?$AAD?$AAR?$AAV?$AA?4?$AAD?$AAL?$AAL?$AA?3?$AAB?$AAu?$AAi?$AAl?$AAd?$AAu?$AAp?$AAM?$AAa?$AAp?$AAp?$AAi?$AAn?$AAg?$AAI?$AAn?$AAf?$AAo?$AA?$CI@ 10003ca8     fal:fal.obj
 0001:00002d38       ??_C@_1KM@PMEJBNAH@?$AAF?$AAL?$AAA?$AAS?$AAH?$AAD?$AAR?$AAV?$AA?4?$AAD?$AAL?$AAL?$AA?3?$AAB?$AAu?$AAi?$AAl?$AAd?$AAu?$AAp?$AAM?$AAa?$AAp?$AAp?$AAi?$AAn?$AAg?$AAI?$AAn?$AAf?$AAo?$AA?$CI@ 10003d38     fal:fal.obj
 0001:00002de8       ??_C@_1KG@HOLEPLLC@?$AAF?$AAL?$AAA?$AAS?$AAH?$AAD?$AAR?$AAV?$AA?4?$AAD?$AAL?$AAL?$AA?3?$AAW?$AAr?$AAi?$AAt?$AAe?$AAT?$AAo?$AAM?$AAe?$AAd?$AAi?$AAa?$AA?$CI?$AA?$CJ?$AA?5?$AA?9?$AA?5?$AAF?$AAA@ 10003de8     fal:fal.obj
 0001:00002e90       ??_C@_1OE@KBICCNND@?$AAF?$AAL?$AAA?$AAS?$AAH?$AAD?$AAR?$AAV?$AA?4?$AAD?$AAL?$AAL?$AA?3?$AAW?$AAr?$AAi?$AAt?$AAe?$AAT?$AAo?$AAM?$AAe?$AAd?$AAi?$AAa?$AA?$CI?$AA?$CJ?$AA?5?$AA?9?$AA?5?$AAU?$AAn@ 10003e90     fal:fal.obj
 0001:00002f78       ??_C@_1NG@CNAHOAJP@?$AAF?$AAL?$AAA?$AAS?$AAH?$AAD?$AAR?$AAV?$AA?4?$AAD?$AAL?$AAL?$AA?3?$AAW?$AAr?$AAi?$AAt?$AAe?$AAT?$AAo?$AAM?$AAe?$AAd?$AAi?$AAa?$AA?$CI?$AA?$CJ?$AA?5?$AA?$DN?$AA?5?$AAF?$AAA@ 10003f78     fal:fal.obj
 0001:00003050       ??_C@_1NC@LHGHHOAC@?$AAF?$AAL?$AAA?$AAS?$AAH?$AAD?$AAR?$AAV?$AA?4?$AAD?$AAL?$AAL?$AA?3?$AAW?$AAr?$AAi?$AAt?$AAe?$AAT?$AAo?$AAM?$AAe?$AAd?$AAi?$AAa?$AA?$CI?$AA?$CJ?$AA?5?$AA?9?$AA?5?$AAU?$AAn@ 10004050     fal:fal.obj
 0001:00003128       ??_C@_1KI@PKIAGGLK@?$AAF?$AAL?$AAA?$AAS?$AAH?$AAD?$AAR?$AAV?$AA?4?$AAD?$AAL?$AAL?$AA?3?$AAW?$AAr?$AAi?$AAt?$AAe?$AAT?$AAo?$AAM?$AAe?$AAd?$AAi?$AAa?$AA?$CI?$AA?$CJ?$AA?5?$AA?9?$AA?5?$AAU?$AAn@ 10004128     fal:fal.obj
 0001:000031d0       ??_C@_1LO@MMMNOKIP@?$AAF?$AAL?$AAA?$AAS?$AAH?$AAD?$AAR?$AAV?$AA?4?$AAD?$AAL?$AAL?$AA?3?$AAW?$AAr?$AAi?$AAt?$AAe?$AAT?$AAo?$AAM?$AAe?$AAd?$AAi?$AAa?$AA?$CI?$AA?$CJ?$AA?5?$AA?9?$AA?5?$AAU?$AAn@ 100041d0     fal:fal.obj
 0001:00003290       ??_C@_1JO@BIKMDKOO@?$AAF?$AAL?$AAA?$AAS?$AAH?$AAD?$AAR?$AAV?$AA?4?$AAD?$AAL?$AAL?$AA?3?$AAW?$AAr?$AAi?$AAt?$AAe?$AAT?$AAo?$AAM?$AAe?$AAd?$AAi?$AAa?$AA?$CI?$AA?$CJ?$AA?5?$AA?9?$AA?5?$AAl?$AAo@ 10004290     fal:fal.obj
 0001:00003330       ??_C@_1OG@OBCKKLLP@?$AAF?$AAL?$AAA?$AAS?$AAH?$AAD?$AAR?$AAV?$AA?4?$AAD?$AAL?$AAL?$AA?3?$AAW?$AAr?$AAi?$AAt?$AAe?$AAT?$AAo?$AAM?$AAe?$AAd?$AAi?$AAa?$AA?$CI?$AA?$CJ?$AA?5?$AA?9?$AA?5?$AAU?$AAn@ 10004330     fal:fal.obj
 0001:00003418       ??_C@_1IO@OEDLKIMM@?$AAF?$AAL?$AAA?$AAS?$AAH?$AAD?$AAR?$AAV?$AA?4?$AAD?$AAL?$AAL?$AA?3?$AAH?$AAa?$AAn?$AAd?$AAl?$AAe?$AAW?$AAr?$AAi?$AAt?$AAe?$AAF?$AAa?$AAi?$AAl?$AAu?$AAr?$AAe?$AA?$CI@ 10004418     fal:fal.obj
 0001:000034a8       ??_C@_1KK@JIEEFMPP@?$AAF?$AAL?$AAA?$AAS?$AAH?$AAD?$AAR?$AAV?$AA?4?$AAD?$AAL?$AAL?$AA?3?$AAH?$AAa?$AAn?$AAd?$AAl?$AAe?$AAW?$AAr?$AAi?$AAt?$AAe?$AAF?$AAa?$AAi?$AAl?$AAu?$AAr?$AAe?$AA?$CI@ 100044a8     fal:fal.obj
 0001:00003558       ??_C@_1LA@FJOJGCBD@?$AAF?$AAL?$AAA?$AAS?$AAH?$AAD?$AAR?$AAV?$AA?4?$AAD?$AAL?$AAL?$AA?3?$AAH?$AAa?$AAn?$AAd?$AAl?$AAe?$AAW?$AAr?$AAi?$AAt?$AAe?$AAF?$AAa?$AAi?$AAl?$AAu?$AAr?$AAe?$AA?$CI@ 10004558     fal:fal.obj
 0001:00003608       ??_C@_1KI@BKLHEKGN@?$AAF?$AAL?$AAA?$AAS?$AAH?$AAD?$AAR?$AAV?$AA?4?$AAD?$AAL?$AAL?$AA?3?$AAD?$AAe?$AAl?$AAe?$AAt?$AAe?$AAS?$AAe?$AAc?$AAt?$AAo?$AAr?$AAs?$AA?$CI?$AA?$CJ?$AA?5?$AA?9?$AA?5?$AAF@ 10004608     fal:fal.obj
 0001:000036b0       ??_C@_1NI@FMOHLAOC@?$AAF?$AAL?$AAA?$AAS?$AAH?$AAD?$AAR?$AAV?$AA?4?$AAD?$AAL?$AAL?$AA?3?$AAD?$AAe?$AAl?$AAe?$AAt?$AAe?$AAS?$AAe?$AAc?$AAt?$AAo?$AAr?$AAs?$AA?$CI?$AA?$CJ?$AA?5?$AA?$DN?$AA?5?$AAF@ 100046b0     fal:fal.obj
 0001:00003788       ??_C@_1KK@DDMJPKKJ@?$AAF?$AAL?$AAA?$AAS?$AAH?$AAD?$AAR?$AAV?$AA?4?$AAD?$AAL?$AAL?$AA?3?$AAD?$AAe?$AAl?$AAe?$AAt?$AAe?$AAS?$AAe?$AAc?$AAt?$AAo?$AAr?$AAs?$AA?$CI?$AA?$CJ?$AA?5?$AA?9?$AA?5?$AAU@ 10004788     fal:fal.obj
 0001:00003838       ??_C@_1LE@EJCPGLNB@?$AAF?$AAL?$AAA?$AAS?$AAH?$AAD?$AAR?$AAV?$AA?4?$AAD?$AAL?$AAL?$AA?3?$AAD?$AAe?$AAl?$AAe?$AAt?$AAe?$AAS?$AAe?$AAc?$AAt?$AAo?$AAr?$AAs?$AA?$CI?$AA?$CJ?$AA?5?$AA?9?$AA?5?$AAD@ 10004838     fal:fal.obj
 0001:000038f0       ??_C@_1FI@PBLLLKID@?$AA?$CF?$AAM?$AAS?$AAF?$AAL?$AAA?$AAS?$AAH?$AA?$CB?$AAD?$AAe?$AAl?$AAe?$AAt?$AAe?$AAS?$AAe?$AAc?$AAt?$AAo?$AAr?$AAs?$AA?5?$AA?9?$AA?5?$AAS?$AAt?$AAa?$AAr?$AAt?$AA?3?$AA?5@ 100048f0     fal:fal.obj
 0001:00003948       ??_C@_1EG@GMEBJDHG@?$AAF?$AAL?$AAA?$AAS?$AAH?$AAD?$AAR?$AAV?$AA?4?$AAD?$AAL?$AAL?$AA?3?$AAS?$AAe?$AAc?$AAu?$AAr?$AAe?$AAW?$AAi?$AAp?$AAe?$AA?$CI?$AA?$CJ?$AA?5?$AA?9?$AA?5?$AAE?$AAx?$AAi?$AAt@ 10004948     fal:fal.obj
 0001:00003990       ??_C@_1GM@KFEPPGDK@?$AAF?$AAL?$AAA?$AAS?$AAH?$AAD?$AAR?$AAV?$AA?4?$AAS?$AAe?$AAc?$AAu?$AAr?$AAe?$AAW?$AAi?$AAp?$AAe?$AA?$CI?$AA?$CJ?$AA?5?$AA?9?$AA?5?$AAF?$AAM?$AAD?$AA_?$AAM?$AAa?$AAr?$AAk@ 10004990     fal:fal.obj
 0001:00003a00       ??_C@_1HA@PKBCMFAK@?$AAF?$AAL?$AAA?$AAS?$AAH?$AAD?$AAR?$AAV?$AA?4?$AAD?$AAL?$AAL?$AA?3?$AAS?$AAe?$AAc?$AAu?$AAr?$AAe?$AAW?$AAi?$AAp?$AAe?$AA?$CI?$AA?$CJ?$AA?5?$AA?9?$AA?5?$AAF?$AAM?$AAD?$AA_@ 10004a00     fal:fal.obj
 0001:00003a70       ??_C@_1EI@NDAAFCDB@?$AAF?$AAL?$AAA?$AAS?$AAH?$AAD?$AAR?$AAV?$AA?4?$AAD?$AAL?$AAL?$AA?3?$AAS?$AAe?$AAc?$AAu?$AAr?$AAe?$AAW?$AAi?$AAp?$AAe?$AA?$CI?$AA?$CJ?$AA?5?$AA?9?$AA?5?$AAE?$AAn?$AAt?$AAe@ 10004a70     fal:fal.obj
 0001:00003ab8       ??_C@_1JK@FLMHGLFG@?$AAF?$AAL?$AAA?$AAS?$AAH?$AAD?$AAR?$AAV?$AA?4?$AAD?$AAL?$AAL?$AA?3?$AAF?$AAi?$AAl?$AAe?$AAS?$AAy?$AAs?$AAF?$AAa?$AAl?$AA?3?$AA?3?$AAS?$AAe?$AAc?$AAu?$AAr?$AAe?$AAW@ 10004ab8     fal:fal.obj
 0001:00003b58       ??_C@_1JC@IMLEGFCG@?$AAF?$AAL?$AAA?$AAS?$AAH?$AAD?$AAR?$AAV?$AA?4?$AAD?$AAL?$AAL?$AA?3?$AAD?$AAe?$AAi?$AAn?$AAi?$AAt?$AAM?$AAa?$AAp?$AAp?$AAe?$AAr?$AA?$CI?$AA?$CJ?$AA?5?$AA?9?$AA?5?$AAU?$AAn@ 10004b58     fal:log2physmap.obj
 0001:00003bf0       ??_C@_1HK@CEHABOK@?$AAd?$AA?3?$AA?2?$AAy?$AAz?$AAk?$AAi?$AAq?$AAf?$AAe?$AA?2?$AAp?$AAr?$AAi?$AAv?$AAa?$AAt?$AAe?$AA?2?$AAw?$AAi?$AAn?$AAc?$AAe?$AAo?$AAs?$AA?2?$AAD?$AAR?$AAI?$AAV?$AAE@ 10004bf0     fal:log2physmap.obj
 0001:00003c70       ??_C@_1OA@NMENLKLN@?$AAF?$AAL?$AAA?$AAS?$AAH?$AAD?$AAR?$AAV?$AA?4?$AAD?$AAL?$AAL?$AA?3?$AAM?$AAa?$AAp?$AAp?$AAi?$AAn?$AAg?$AAT?$AAa?$AAb?$AAl?$AAe?$AA?3?$AA?3?$AAG?$AAe?$AAt?$AAP?$AAh@ 10004c70     fal:log2physmap.obj
 0001:00003d50       ??_C@_1LI@IBLAOOHD@?$AAF?$AAL?$AAA?$AAS?$AAH?$AAD?$AAR?$AAV?$AA?4?$AAD?$AAL?$AAL?$AA?3?$AAM?$AAa?$AAp?$AAp?$AAi?$AAn?$AAg?$AAT?$AAa?$AAb?$AAl?$AAe?$AA?3?$AA?3?$AAG?$AAe?$AAt?$AAP?$AAh@ 10004d50     fal:log2physmap.obj
 0001:00003e08       ??_C@_1MM@IBCGJBAE@?$AAF?$AAL?$AAA?$AAS?$AAH?$AAD?$AAR?$AAV?$AA?4?$AAD?$AAL?$AAL?$AA?3?$AAM?$AAa?$AAp?$AAp?$AAi?$AAn?$AAg?$AAT?$AAa?$AAb?$AAl?$AAe?$AA?3?$AA?3?$AAG?$AAe?$AAt?$AAP?$AAh@ 10004e08     fal:log2physmap.obj
 0001:00003ed8       ??_C@_1KA@MEHLHECN@?$AA?$CF?$AAM?$AAS?$AAF?$AAL?$AAA?$AAS?$AAH?$AA?$CB?$AAG?$AAe?$AAt?$AAP?$AAh?$AAy?$AAs?$AAi?$AAc?$AAa?$AAl?$AAS?$AAe?$AAc?$AAt?$AAo?$AAr?$AAA?$AAd?$AAd?$AAr?$AA?5?$AA?9@ 10004ed8     fal:log2physmap.obj
 0001:00003f78       ??_C@_1LK@JDINLKPH@?$AAF?$AAL?$AAA?$AAS?$AAH?$AAD?$AAR?$AAV?$AA?4?$AAD?$AAL?$AAL?$AA?3?$AAM?$AAa?$AAp?$AAL?$AAo?$AAg?$AAi?$AAc?$AAa?$AAl?$AAS?$AAe?$AAc?$AAt?$AAo?$AAr?$AA?$CI?$AA?$CJ?$AA?5@ 10004f78     fal:log2physmap.obj
 0001:00004038       ??_C@_1KO@NHEIIMCI@?$AAF?$AAL?$AAA?$AAS?$AAH?$AAD?$AAR?$AAV?$AA?4?$AAD?$AAL?$AAL?$AA?3?$AAM?$AAa?$AAp?$AAp?$AAi?$AAn?$AAg?$AAT?$AAa?$AAb?$AAl?$AAe?$AA?3?$AA?3?$AAM?$AAa?$AAp?$AAL?$AAo@ 10005038     fal:log2physmap.obj
 0001:000040e8       ??_C@_1NC@FHFLDNCG@?$AAF?$AAL?$AAA?$AAS?$AAH?$AAD?$AAR?$AAV?$AA?4?$AAD?$AAL?$AAL?$AA?3?$AAM?$AAa?$AAp?$AAp?$AAi?$AAn?$AAg?$AAT?$AAa?$AAb?$AAl?$AAe?$AA?3?$AA?3?$AAM?$AAa?$AAp?$AAL?$AAo@ 100050e8     fal:log2physmap.obj
 0001:000041c0       ??_C@_1MI@EPOJAJPE@?$AA?$CF?$AAM?$AAS?$AAF?$AAL?$AAA?$AAS?$AAH?$AA?$CB?$AAM?$AAa?$AAp?$AAL?$AAo?$AAg?$AAi?$AAc?$AAa?$AAl?$AAS?$AAe?$AAc?$AAt?$AAo?$AAr?$AA?5?$AA?9?$AA?5?$AAW?$AAr?$AAi?$AAt@ 100051c0     fal:log2physmap.obj
 0001:00004288       ??_C@_1LM@PNLHAPCC@?$AAF?$AAL?$AAA?$AAS?$AAH?$AAD?$AAR?$AAV?$AA?4?$AAD?$AAL?$AAL?$AA?3?$AAM?$AAa?$AAr?$AAk?$AAS?$AAe?$AAc?$AAt?$AAo?$AAr?$AAs?$AAA?$AAs?$AAD?$AAi?$AAr?$AAt?$AAy?$AA?$CI@ 10005288     fal:sectormgr.obj
 0001:00004348       ??_C@_1KK@PJJAHFPM@?$AAF?$AAL?$AAA?$AAS?$AAH?$AAD?$AAR?$AAV?$AA?4?$AAD?$AAL?$AAL?$AA?3?$AAU?$AAn?$AAm?$AAa?$AAr?$AAk?$AAS?$AAe?$AAc?$AAt?$AAo?$AAr?$AAs?$AAA?$AAs?$AAD?$AAi?$AAr?$AAt@ 10005348     fal:sectormgr.obj
 0001:000043f8       ??_C@_1GK@NMELNNOD@?$AAF?$AAL?$AAA?$AAS?$AAH?$AAD?$AAR?$AAV?$AA?4?$AAD?$AAL?$AAL?$AA?3?$AAD?$AAe?$AAi?$AAn?$AAi?$AAt?$AA?$CI?$AA?$CJ?$AA?5?$AA?9?$AA?5?$AAU?$AAn?$AAa?$AAb?$AAl?$AAe?$AA?5?$AAt@ 100053f8     fal:sectormgr.obj
 0001:00004468       ??_C@_1HG@MEGFHBKJ@?$AAd?$AA?3?$AA?2?$AAy?$AAz?$AAk?$AAi?$AAq?$AAf?$AAe?$AA?2?$AAp?$AAr?$AAi?$AAv?$AAa?$AAt?$AAe?$AA?2?$AAw?$AAi?$AAn?$AAc?$AAe?$AAo?$AAs?$AA?2?$AAD?$AAR?$AAI?$AAV?$AAE@ 10005468     fal:sectormgr.obj
 0001:000044e0       ??_C@_1IO@ODEBADJK@?$AAF?$AAL?$AAA?$AAS?$AAH?$AAD?$AAR?$AAV?$AA?4?$AAD?$AAL?$AAL?$AA?3?$AAS?$AAM?$AAL?$AAi?$AAs?$AAt?$AA?3?$AA?3?$AAA?$AAd?$AAd?$AAS?$AAe?$AAc?$AAt?$AAo?$AAr?$AAs?$AA?5@ 100054e0     fal:sectormgr.obj
 0001:00004570       ??_C@_1LO@CPCDANCJ@?$AAF?$AAL?$AAA?$AAS?$AAH?$AAD?$AAR?$AAV?$AA?4?$AAD?$AAL?$AAL?$AA?3?$AAS?$AAe?$AAc?$AAt?$AAo?$AAr?$AAM?$AAg?$AAr?$AA?3?$AA?3?$AAG?$AAe?$AAt?$AAN?$AAe?$AAx?$AAt?$AAF@ 10005570     fal:sectormgr.obj
 0001:00004630       ??_C@_1MM@LIDLKODB@?$AAF?$AAL?$AAA?$AAS?$AAH?$AAD?$AAR?$AAV?$AA?4?$AAD?$AAL?$AAL?$AA?3?$AAS?$AAe?$AAc?$AAt?$AAo?$AAr?$AAM?$AAg?$AAr?$AA?3?$AA?3?$AAG?$AAe?$AAt?$AAN?$AAe?$AAx?$AAt?$AAF@ 10005630     fal:sectormgr.obj
 0001:00004700       ??_C@_1LG@HMIGMGBB@?$AAF?$AAL?$AAA?$AAS?$AAH?$AAD?$AAR?$AAV?$AA?4?$AAD?$AAL?$AAL?$AA?3?$AAS?$AAe?$AAc?$AAt?$AAo?$AAr?$AAM?$AAg?$AAr?$AA?3?$AA?3?$AAG?$AAe?$AAt?$AAN?$AAe?$AAx?$AAt?$AAF@ 10005700     fal:sectormgr.obj
 0001:000047b8       ??_C@_1BBA@CDMFFJJN@?$AAF?$AAL?$AAA?$AAS?$AAH?$AAD?$AAR?$AAV?$AA?4?$AAD?$AAL?$AAL?$AA?3?$AAS?$AAe?$AAc?$AAt?$AAo?$AAr?$AAM?$AAg?$AAr?$AA?3?$AA?3?$AAG?$AAe?$AAt?$AAN?$AAe?$AAx?$AAt?$AAF@ 100057b8     fal:sectormgr.obj
 0001:000048c8       ??_C@_1MG@GOEMELLO@?$AAF?$AAL?$AAA?$AAS?$AAH?$AAD?$AAR?$AAV?$AA?4?$AAD?$AAL?$AAL?$AA?3?$AAS?$AAe?$AAc?$AAt?$AAo?$AAr?$AAM?$AAg?$AAr?$AA?3?$AA?3?$AAG?$AAe?$AAt?$AAN?$AAe?$AAx?$AAt?$AAF@ 100058c8     fal:sectormgr.obj
 0001:00004990       ??_C@_1GI@GICBBJOH@?$AAS?$AAe?$AAc?$AAt?$AAo?$AAr?$AAM?$AAg?$AAr?$AA?3?$AA?3?$AAM?$AAa?$AAr?$AAk?$AAS?$AAe?$AAc?$AAt?$AAo?$AAr?$AAs?$AAA?$AAs?$AAD?$AAi?$AAr?$AAt?$AAy?$AA?3?$AA?5?$AAI@ 10005990     fal:sectormgr.obj
 0001:000049f8       ??_C@_1GM@OMGKFBCA@?$AAS?$AAe?$AAc?$AAt?$AAo?$AAr?$AAM?$AAg?$AAr?$AA?3?$AA?3?$AAU?$AAn?$AAm?$AAa?$AAr?$AAk?$AAS?$AAe?$AAc?$AAt?$AAo?$AAr?$AAs?$AAA?$AAs?$AAD?$AAi?$AAr?$AAt?$AAy?$AA?3@ 100059f8     fal:sectormgr.obj
 0001:00004a68       ??_C@_1KC@OLLNIAFF@?$AAF?$AAL?$AAA?$AAS?$AAH?$AAD?$AAR?$AAV?$AA?4?$AAD?$AAL?$AAL?$AA?3?$AAC?$AAo?$AAm?$AAp?$AAa?$AAc?$AAt?$AAo?$AAr?$AA?3?$AA?3?$AAI?$AAn?$AAi?$AAt?$AAC?$AAo?$AAm?$AAp@ 10005a68     fal:compactor.obj
 0001:00004b10       ??_C@_1KO@LECMKHAL@?$AAF?$AAL?$AAA?$AAS?$AAH?$AAD?$AAR?$AAV?$AA?4?$AAD?$AAL?$AAL?$AA?3?$AAC?$AAo?$AAm?$AAp?$AAa?$AAc?$AAt?$AAo?$AAr?$AA?3?$AA?3?$AAI?$AAn?$AAi?$AAt?$AAC?$AAo?$AAm?$AAp@ 10005b10     fal:compactor.obj
 0001:00004bc0       ??_C@_1ME@DGCDKIAK@?$AAF?$AAL?$AAA?$AAS?$AAH?$AAD?$AAR?$AAV?$AA?4?$AAD?$AAL?$AAL?$AA?3?$AAC?$AAo?$AAm?$AAp?$AAa?$AAc?$AAt?$AAo?$AAr?$AA?3?$AA?3?$AAI?$AAn?$AAi?$AAt?$AAC?$AAo?$AAm?$AAp@ 10005bc0     fal:compactor.obj
 0001:00004c88       ??_C@_1LO@KJCOEDJM@?$AAF?$AAL?$AAA?$AAS?$AAH?$AAD?$AAR?$AAV?$AA?4?$AAD?$AAL?$AAL?$AA?3?$AAC?$AAo?$AAm?$AAp?$AAa?$AAc?$AAt?$AAo?$AAr?$AA?3?$AA?3?$AAI?$AAn?$AAi?$AAt?$AAC?$AAo?$AAm?$AAp@ 10005c88     fal:compactor.obj
 0001:00004d48       ??_C@_1LG@OPHODJDO@?$AAF?$AAL?$AAA?$AAS?$AAH?$AAD?$AAR?$AAV?$AA?4?$AAD?$AAL?$AAL?$AA?3?$AAC?$AAo?$AAm?$AAp?$AAa?$AAc?$AAt?$AAo?$AAr?$AA?3?$AA?3?$AAI?$AAn?$AAi?$AAt?$AAC?$AAo?$AAm?$AAp@ 10005d48     fal:compactor.obj
 0001:00004e00       ??_C@_1HG@HBMELEKM@?$AAd?$AA?3?$AA?2?$AAy?$AAz?$AAk?$AAi?$AAq?$AAf?$AAe?$AA?2?$AAp?$AAr?$AAi?$AAv?$AAa?$AAt?$AAe?$AA?2?$AAw?$AAi?$AAn?$AAc?$AAe?$AAo?$AAs?$AA?2?$AAD?$AAR?$AAI?$AAV?$AAE@ 10005e00     fal:compactor.obj
 0001:00004e78       ??_C@_1KO@JOAIJKIN@?$AAF?$AAL?$AAA?$AAS?$AAH?$AAD?$AAR?$AAV?$AA?4?$AAD?$AAL?$AAL?$AA?3?$AAC?$AAo?$AAm?$AAp?$AAa?$AAc?$AAt?$AAo?$AAr?$AA?3?$AA?3?$AAD?$AAe?$AAi?$AAn?$AAi?$AAt?$AA?$CI?$AA?$CJ@ 10005e78     fal:compactor.obj
 0001:00004f28       ??_C@_1KE@BGOCGIFM@?$AAF?$AAL?$AAA?$AAS?$AAH?$AAD?$AAR?$AAV?$AA?4?$AAD?$AAL?$AAL?$AA?3?$AAC?$AAo?$AAm?$AAp?$AAa?$AAc?$AAt?$AAo?$AAr?$AAT?$AAh?$AAr?$AAe?$AAa?$AAd?$AA?$CI?$AA?$CJ?$AA?5?$AA?9@ 10005f28     fal:compactor.obj
 0001:00004fd0       ??_C@_1LE@CEEKOHDP@?$AAF?$AAL?$AAA?$AAS?$AAH?$AAD?$AAR?$AAV?$AA?4?$AAD?$AAL?$AAL?$AA?3?$AAC?$AAo?$AAm?$AAp?$AAa?$AAc?$AAt?$AAo?$AAr?$AA?3?$AA?3?$AAS?$AAt?$AAa?$AAr?$AAt?$AAC?$AAo?$AAm@ 10005fd0     fal:compactor.obj
 0001:00005088       ??_C@_1KE@PFNDKGDN@?$AAF?$AAL?$AAA?$AAS?$AAH?$AAD?$AAR?$AAV?$AA?4?$AAD?$AAL?$AAL?$AA?3?$AAC?$AAo?$AAm?$AAp?$AAa?$AAc?$AAt?$AAo?$AAr?$AA?3?$AA?3?$AAS?$AAt?$AAa?$AAr?$AAt?$AAC?$AAo?$AAm@ 10006088     fal:compactor.obj
 0001:00005130       ??_C@_1NI@JLFONIAF@?$AAF?$AAL?$AAA?$AAS?$AAH?$AAD?$AAR?$AAV?$AA?4?$AAD?$AAL?$AAL?$AA?3?$AAC?$AAo?$AAm?$AAp?$AAa?$AAc?$AAt?$AAo?$AAr?$AA?3?$AA?3?$AAS?$AAt?$AAa?$AAr?$AAt?$AAC?$AAo?$AAm@ 10006130     fal:compactor.obj
 0001:00005208       ??_C@_1OC@DPKAJBGP@?$AAF?$AAL?$AAA?$AAS?$AAH?$AAD?$AAR?$AAV?$AA?4?$AAD?$AAL?$AAL?$AA?3?$AAC?$AAo?$AAm?$AAp?$AAa?$AAc?$AAt?$AAo?$AAr?$AA?3?$AA?3?$AAS?$AAt?$AAa?$AAr?$AAt?$AAC?$AAo?$AAm@ 10006208     fal:compactor.obj
 0001:000052f0       ??_C@_1JA@DEPJLKPD@?$AAF?$AAL?$AAA?$AAS?$AAH?$AAD?$AAR?$AAV?$AA?4?$AAD?$AAL?$AAL?$AA?3?$AAC?$AAo?$AAm?$AAp?$AAa?$AAc?$AAt?$AAo?$AAr?$AA?3?$AA?3?$AAG?$AAe?$AAt?$AAC?$AAo?$AAm?$AAp?$AAa@ 100062f0     fal:compactor.obj
 0001:00005380       ??_C@_1JM@FPMCPNOC@?$AAF?$AAL?$AAA?$AAS?$AAH?$AAD?$AAR?$AAV?$AA?4?$AAD?$AAL?$AAL?$AA?3?$AAC?$AAo?$AAm?$AAp?$AAa?$AAc?$AAt?$AAo?$AAr?$AAT?$AAh?$AAr?$AAe?$AAa?$AAd?$AA?$CI?$AA?$CJ?$AA?5?$AA?9@ 10006380     fal:compactor.obj
 0001:00005420       ??_C@_1JK@BBMMLLOG@?$AAF?$AAL?$AAA?$AAS?$AAH?$AAD?$AAR?$AAV?$AA?4?$AAD?$AAL?$AAL?$AA?5?$AA?5?$AA?5?$AA?$DO?$AA?$DO?$AA?$DO?$AA?5?$AAC?$AAo?$AAm?$AAp?$AAa?$AAc?$AAt?$AAi?$AAo?$AAn?$AA?5?$AAp?$AAr@ 10006420     fal:compactor.obj
 0001:000054c0       ??_C@_1LI@PHKOMMEB@?$AAF?$AAL?$AAA?$AAS?$AAH?$AAD?$AAR?$AAV?$AA?4?$AAD?$AAL?$AAL?$AA?3?$AAC?$AAo?$AAm?$AAp?$AAa?$AAc?$AAt?$AAo?$AAr?$AAT?$AAh?$AAr?$AAe?$AAa?$AAd?$AA?$CI?$AA?$CJ?$AA?5?$AA?9@ 100064c0     fal:compactor.obj
 0001:00005578       ??_C@_1GO@KMMOPJKP@?$AAF?$AAL?$AAA?$AAS?$AAH?$AAD?$AAR?$AAV?$AA?4?$AAD?$AAL?$AAL?$AA?3?$AAC?$AAo?$AAm?$AAp?$AAa?$AAc?$AAt?$AAo?$AAr?$AAT?$AAh?$AAr?$AAe?$AAa?$AAd?$AA?$CI?$AA?$CJ?$AA?5?$AA?9@ 10006578     fal:compactor.obj
 0001:000055e8       ??_C@_1KM@MOEKEOBE@?$AAF?$AAL?$AAA?$AAS?$AAH?$AAD?$AAR?$AAV?$AA?4?$AAD?$AAL?$AAL?$AA?3?$AAC?$AAo?$AAm?$AAp?$AAa?$AAc?$AAt?$AAo?$AAr?$AAT?$AAh?$AAr?$AAe?$AAa?$AAd?$AA?$CI?$AA?$CJ?$AA?5?$AA?9@ 100065e8     fal:compactor.obj
 0001:00005698       ??_C@_1IA@OKACKLAA@?$AAF?$AAL?$AAA?$AAS?$AAH?$AAD?$AAR?$AAV?$AA?4?$AAD?$AAL?$AAL?$AA?3?$AA?9?$AA?9?$AA?9?$AA?9?$AA?9?$AA?9?$AA?9?$AA?9?$AA?9?$AA?9?$AA?9?$AA?9?$AA?9?$AA?9?$AA?9?$AA?9?$AA?9?$AA?9?$AA?9@ 10006698     fal:compactor.obj
 0001:00005718       ??_C@_1EM@NLLIPEDJ@?$AA?5?$AA?5?$AA?5?$AA?5?$AA?5?$AA?5?$AA?5?$AA?5?$AA?5?$AA?5?$AA?5?$AA?5?$AA?5?$AA?5?$AA?5?$AA?5?$AA?5?$AAD?$AAi?$AAr?$AAt?$AAy?$AA?5?$AAS?$AAe?$AAc?$AAt?$AAo?$AAr?$AAs?$AA?5?$AA?$DN@ 10006718     fal:compactor.obj
 0001:00005768       ??_C@_1EM@FJMGNAEN@?$AA?5?$AA?5?$AA?5?$AA?5?$AA?5?$AA?5?$AA?5?$AA?5?$AA?5?$AA?5?$AA?5?$AA?5?$AA?5?$AA?5?$AA?5?$AA?5?$AA?5?$AAF?$AAr?$AAe?$AAe?$AA?5?$AA?5?$AAS?$AAe?$AAc?$AAt?$AAo?$AAr?$AAs?$AA?5?$AA?$DN@ 10006768     fal:compactor.obj
 0001:000057b8       ??_C@_1GC@MIFBPECC@?$AA?5?$AA?5?$AA?5?$AA?5?$AA?5?$AA?5?$AA?5?$AA?5?$AA?5?$AA?5?$AA?5?$AA?5?$AA?5?$AA?5?$AA?$DO?$AA?$DO?$AA?$DO?$AA?5?$AAM?$AAe?$AAd?$AAi?$AAa?$AA?5?$AAS?$AAt?$AAa?$AAt?$AAe?$AA?5?$AAI?$AAn@ 100067b8     fal:compactor.obj
 0001:00005820       ??_C@_1IM@HFAICCKM@?$AA?5?$AA?5?$AA?5?$AA?5?$AA?5?$AA?5?$AA?5?$AA?5?$AA?5?$AA?5?$AA?5?$AA?5?$AA?5?$AA?5?$AAL?$AAo?$AAo?$AAk?$AAi?$AAn?$AAg?$AA?5?$AAt?$AAo?$AA?5?$AAr?$AAe?$AAc?$AAy?$AAc?$AAl?$AAe@ 10006820     fal:compactor.obj
 0001:000058b0       ??_C@_1IA@PEHABGON@?$AAF?$AAL?$AAA?$AAS?$AAH?$AAD?$AAR?$AAV?$AA?4?$AAD?$AAL?$AAL?$AA?3?$AA?9?$AA?9?$AA?9?$AA?9?$AA?9?$AA?9?$AA?9?$AA?9?$AA?9?$AA?9?$AA?9?$AA?9?$AA?5?$AAS?$AAt?$AAa?$AAr?$AAt?$AAi@ 100068b0     fal:compactor.obj
 0001:00005930       ??_C@_1GM@PCIDEJCO@?$AAF?$AAL?$AAA?$AAS?$AAH?$AAD?$AAR?$AAV?$AA?4?$AAD?$AAL?$AAL?$AA?3?$AAC?$AAo?$AAm?$AAp?$AAa?$AAc?$AAt?$AAo?$AAr?$AAT?$AAh?$AAr?$AAe?$AAa?$AAd?$AA?$CI?$AA?$CJ?$AA?5?$AA?9@ 10006930     fal:compactor.obj
 0001:000059a0       ??_C@_1MG@MLHFBLAN@?$AAF?$AAL?$AAA?$AAS?$AAH?$AAD?$AAR?$AAV?$AA?4?$AAD?$AAL?$AAL?$AA?3?$AAC?$AAo?$AAm?$AAp?$AAa?$AAc?$AAt?$AAo?$AAr?$AAT?$AAh?$AAr?$AAe?$AAa?$AAd?$AA?$CI?$AA?$CJ?$AA?5?$AA?9@ 100069a0     fal:compactor.obj
 0001:00005a68       ??_C@_1MM@CLNBMOEN@?$AAF?$AAL?$AAA?$AAS?$AAH?$AAD?$AAR?$AAV?$AA?4?$AAD?$AAL?$AAL?$AA?3?$AAC?$AAo?$AAm?$AAp?$AAa?$AAc?$AAt?$AAo?$AAr?$AA?3?$AA?3?$AAC?$AAo?$AAm?$AAp?$AAa?$AAc?$AAt?$AAB@ 10006a68     fal:compactor.obj
 0001:00005b38       ??_C@_1KO@BCIHKLG@?$AAF?$AAL?$AAA?$AAS?$AAH?$AAD?$AAR?$AAV?$AA?4?$AAD?$AAL?$AAL?$AA?3?$AAC?$AAo?$AAm?$AAp?$AAa?$AAc?$AAt?$AAo?$AAr?$AA?3?$AA?3?$AAC?$AAo?$AAm?$AAp?$AAa?$AAc?$AAt?$AAB@ 10006b38     fal:compactor.obj
 0001:00005be8       ??_C@_1JK@CBPMAMJA@?$AAF?$AAL?$AAA?$AAS?$AAH?$AAD?$AAR?$AAV?$AA?4?$AAD?$AAL?$AAL?$AA?3?$AAC?$AAo?$AAm?$AAp?$AAa?$AAc?$AAt?$AAo?$AAr?$AA?3?$AA?3?$AAC?$AAo?$AAm?$AAp?$AAa?$AAc?$AAt?$AAB@ 10006be8     fal:compactor.obj
 0001:00005c88       ??_C@_1NC@NOEONILI@?$AAF?$AAL?$AAA?$AAS?$AAH?$AAD?$AAR?$AAV?$AA?4?$AAD?$AAL?$AAL?$AA?3?$AAC?$AAo?$AAm?$AAp?$AAa?$AAc?$AAt?$AAo?$AAr?$AA?3?$AA?3?$AAC?$AAo?$AAm?$AAp?$AAa?$AAc?$AAt?$AAB@ 10006c88     fal:compactor.obj
 0001:00005d60       ??_C@_1LO@LODNOAFD@?$AAF?$AAL?$AAA?$AAS?$AAH?$AAD?$AAR?$AAV?$AA?4?$AAD?$AAL?$AAL?$AA?3?$AAC?$AAo?$AAm?$AAp?$AAa?$AAc?$AAt?$AAo?$AAr?$AA?3?$AA?3?$AAC?$AAo?$AAm?$AAp?$AAa?$AAc?$AAt?$AAB@ 10006d60     fal:compactor.obj
 0001:00005e20       ??_C@_1NC@CBLJCFA@?$AAF?$AAL?$AAA?$AAS?$AAH?$AAD?$AAR?$AAV?$AA?4?$AAD?$AAL?$AAL?$AA?3?$AAC?$AAo?$AAm?$AAp?$AAa?$AAc?$AAt?$AAo?$AAr?$AA?3?$AA?3?$AAC?$AAo?$AAm?$AAp?$AAa?$AAc?$AAt?$AAB@ 10006e20     fal:compactor.obj
 0001:00005ef8       ??_C@_1KM@LLPJNIFF@?$AAF?$AAL?$AAA?$AAS?$AAH?$AAD?$AAR?$AAV?$AA?4?$AAD?$AAL?$AAL?$AA?3?$AAC?$AAo?$AAm?$AAp?$AAa?$AAc?$AAt?$AAo?$AAr?$AA?3?$AA?3?$AAC?$AAo?$AAm?$AAp?$AAa?$AAc?$AAt?$AAB@ 10006ef8     fal:compactor.obj
 0001:00005fa8       ??_C@_1LO@BNMDCBDE@?$AAF?$AAL?$AAA?$AAS?$AAH?$AAD?$AAR?$AAV?$AA?4?$AAD?$AAL?$AAL?$AA?3?$AAC?$AAo?$AAm?$AAp?$AAa?$AAc?$AAt?$AAo?$AAr?$AA?3?$AA?3?$AAC?$AAo?$AAm?$AAp?$AAa?$AAc?$AAt?$AAB@ 10006fa8     fal:compactor.obj
 0001:00006068       ??_C@_1MO@DOIMHOGO@?$AAF?$AAL?$AAA?$AAS?$AAH?$AAD?$AAR?$AAV?$AA?4?$AAD?$AAL?$AAL?$AA?3?$AAC?$AAo?$AAm?$AAp?$AAa?$AAc?$AAt?$AAo?$AAr?$AA?3?$AA?3?$AAC?$AAo?$AAm?$AAp?$AAa?$AAc?$AAt?$AAB@ 10007068     fal:compactor.obj
 0001:00006138       ??_C@_1LC@CEDCPKBC@?$AAF?$AAL?$AAA?$AAS?$AAH?$AAD?$AAR?$AAV?$AA?4?$AAD?$AAL?$AAL?$AA?5?$AA?5?$AA?5?$AA?5?$AA?5?$AA?$DO?$AA?$DO?$AA?$DO?$AA?5?$AAM?$AAo?$AAv?$AAi?$AAn?$AAg?$AA?5?$AAd?$AAa?$AAt?$AAa@ 10007138     fal:compactor.obj
 0001:000061f0       ??_C@_1PG@LMBJKILE@?$AAF?$AAL?$AAA?$AAS?$AAH?$AAD?$AAR?$AAV?$AA?4?$AAD?$AAL?$AAL?$AA?3?$AAC?$AAo?$AAm?$AAp?$AAa?$AAc?$AAt?$AAo?$AAr?$AA?3?$AA?3?$AAC?$AAo?$AAm?$AAp?$AAa?$AAc?$AAt?$AAB@ 100071f0     fal:compactor.obj
 0001:000062e8       ??_C@_1MC@FELMEADO@?$AAF?$AAL?$AAA?$AAS?$AAH?$AAD?$AAR?$AAV?$AA?4?$AAD?$AAL?$AAL?$AA?3?$AAC?$AAo?$AAm?$AAp?$AAa?$AAc?$AAt?$AAo?$AAr?$AA?3?$AA?3?$AAC?$AAo?$AAm?$AAp?$AAa?$AAc?$AAt?$AAB@ 100072e8     fal:compactor.obj
 0001:000063b0       ??_C@_1LC@EMFPMBLG@?$AAF?$AAL?$AAA?$AAS?$AAH?$AAD?$AAR?$AAV?$AA?4?$AAD?$AAL?$AAL?$AA?5?$AA?5?$AA?5?$AA?5?$AA?5?$AA?$DO?$AA?$DO?$AA?$DO?$AA?5?$AAL?$AAo?$AAg?$AAi?$AAc?$AAa?$AAl?$AA?5?$AAs?$AAe?$AAc@ 100073b0     fal:compactor.obj
 0001:00006468       ??_C@_1HA@ELCLBCKJ@?$AAF?$AAL?$AAA?$AAS?$AAH?$AAD?$AAR?$AAV?$AA?4?$AAD?$AAL?$AAL?$AA?5?$AA?5?$AA?5?$AA?5?$AA?5?$AA?$DO?$AA?$DO?$AA?$DO?$AA?5?$AAP?$AAh?$AAy?$AAs?$AAi?$AAc?$AAa?$AAl?$AA?5?$AAs?$AAe@ 10007468     fal:compactor.obj
 0001:000064d8       ??_C@_1LI@MJIEHNGP@?$AAF?$AAL?$AAA?$AAS?$AAH?$AAD?$AAR?$AAV?$AA?4?$AAD?$AAL?$AAL?$AA?3?$AAC?$AAo?$AAm?$AAp?$AAa?$AAc?$AAt?$AAo?$AAr?$AA?3?$AA?3?$AAC?$AAo?$AAm?$AAp?$AAa?$AAc?$AAt?$AAB@ 100074d8     fal:compactor.obj
 0001:00006590       ??_C@_1GO@MGBLCDMC@?$AAF?$AAL?$AAA?$AAS?$AAH?$AAD?$AAR?$AAV?$AA?4?$AAD?$AAL?$AAL?$AA?5?$AA?5?$AA?5?$AA?5?$AA?5?$AA?$DO?$AA?$DO?$AA?$DO?$AA?5?$AAP?$AAh?$AAy?$AAs?$AAi?$AAc?$AAa?$AAl?$AA?5?$AAs?$AAe@ 10007590     fal:compactor.obj
 0001:00006600       ??_C@_1NC@FECLLGPL@?$AAF?$AAL?$AAA?$AAS?$AAH?$AAD?$AAR?$AAV?$AA?4?$AAD?$AAL?$AAL?$AA?3?$AAC?$AAo?$AAm?$AAp?$AAa?$AAc?$AAt?$AAo?$AAr?$AA?3?$AA?3?$AAC?$AAo?$AAm?$AAp?$AAa?$AAc?$AAt?$AAB@ 10007600     fal:compactor.obj
 0001:000066d8       ??_C@_1KI@KKGPNNBJ@?$AAF?$AAL?$AAA?$AAS?$AAH?$AAD?$AAR?$AAV?$AA?4?$AAD?$AAL?$AAL?$AA?3?$AAC?$AAo?$AAm?$AAp?$AAa?$AAc?$AAt?$AAo?$AAr?$AA?3?$AA?3?$AAG?$AAe?$AAt?$AAN?$AAe?$AAx?$AAt?$AAC@ 100076d8     fal:compactor.obj
 0001:00006780       ??_C@_1CK@JDMHAJCL@?$AA?$FL?$AAF?$AAM?$AAD?$AA?$FN?$AA?5?$AA?9?$AA?9?$AAF?$AAM?$AAD?$AA_?$AAI?$AAn?$AAi?$AAt?$AA?$CI?$AA?$CJ?$AA?$AN?$AA?6?$AA?$AA@ 10007780     nandflash_lib:fmd.obj
 0001:000067b0       ??_C@_1EK@EAPGKFMN@?$AA?$FL?$AAF?$AAM?$AAD?$AA?$FN?$AA?5?$AAF?$AAM?$AAD?$AA_?$AAI?$AAn?$AAi?$AAt?$AA?$CI?$AA?$CJ?$AA?5?$AA?3?$AA?5?$AAA?$AAd?$AAd?$AAr?$AA?5?$AAC?$AAy?$AAc?$AAl?$AAe?$AA?5?$AA?$DN?$AA?5@ 100077b0     nandflash_lib:fmd.obj
 0001:00006800       ??_C@_1FG@BBMOKJLK@?$AA?$FL?$AAF?$AAM?$AAD?$AA?$FN?$AA?5?$AAF?$AAM?$AAD?$AA_?$AAI?$AAn?$AAi?$AAt?$AA?$CI?$AA?$CJ?$AA?5?$AA?3?$AA?5?$AAS?$AAE?$AAC?$AAT?$AAO?$AAR?$AAS?$AA_?$AAP?$AAE?$AAR?$AA_?$AAP@ 10007800     nandflash_lib:fmd.obj
 0001:00006858       ??_C@_1FE@PHOLOOAC@?$AA?$FL?$AAF?$AAM?$AAD?$AA?$FN?$AA?5?$AAF?$AAM?$AAD?$AA_?$AAI?$AAn?$AAi?$AAt?$AA?$CI?$AA?$CJ?$AA?5?$AA?3?$AA?5?$AAP?$AAA?$AAG?$AAE?$AAS?$AA_?$AAP?$AAE?$AAR?$AA_?$AAB?$AAL?$AAO@ 10007858     nandflash_lib:fmd.obj
 0001:000068b0       ??_C@_1FA@ILCAIHD@?$AA?$FL?$AAF?$AAM?$AAD?$AA?$FN?$AA?5?$AAF?$AAM?$AAD?$AA_?$AAI?$AAn?$AAi?$AAt?$AA?$CI?$AA?$CJ?$AA?5?$AA?3?$AA?5?$AAN?$AAU?$AAM?$AA_?$AAO?$AAF?$AA_?$AAB?$AAL?$AAO?$AAC?$AAK?$AAS@ 100078b0     nandflash_lib:fmd.obj
 0001:00006900       ??_C@_1FK@MFICDHLC@?$AA?$FL?$AAF?$AAM?$AAD?$AA?3?$AAE?$AAR?$AAR?$AA?$FN?$AA?5?$AAF?$AAM?$AAD?$AA_?$AAI?$AAn?$AAi?$AAt?$AA?$CI?$AA?$CJ?$AA?5?$AA?3?$AA?5?$AAU?$AAn?$AAk?$AAn?$AAo?$AAw?$AAn?$AA?5?$AAI@ 10007900     nandflash_lib:fmd.obj
 0001:00006960       ??_C@_1IE@JLGBBLHA@?$AA?$FL?$AAF?$AAM?$AAD?$AA?3?$AAI?$AAN?$AAF?$AA?$FN?$AA?5?$AAF?$AAM?$AAD?$AA_?$AAI?$AAn?$AAi?$AAt?$AA?$CI?$AA?$CJ?$AA?5?$AA?3?$AA?5?$AAR?$AAe?$AAa?$AAd?$AA?5?$AAI?$AAD?$AA?5?$AA?$DN@ 10007960     nandflash_lib:fmd.obj
 0001:000069e8       ??_C@_1FM@JNOLOLLF@?$AAE?$AAr?$AAr?$AAo?$AAr?$AA?3?$AA?5?$AAI?$AAo?$AA?5?$AAM?$AAa?$AAp?$AAp?$AAi?$AAn?$AAg?$AA?5?$AAf?$AAa?$AAi?$AAl?$AAe?$AAd?$AA?5?$AAf?$AAo?$AAr?$AA?5?$AAS?$AAY?$AAS@ 100079e8     nandflash_lib:fmd.obj
 0001:00006a48       ??_C@_1FK@FFABIFGE@?$AAE?$AAr?$AAr?$AAo?$AAr?$AA?3?$AA?5?$AAI?$AAo?$AA?5?$AAM?$AAa?$AAp?$AAp?$AAi?$AAn?$AAg?$AA?5?$AAf?$AAa?$AAi?$AAl?$AAe?$AAd?$AA?5?$AAf?$AAo?$AAr?$AA?5?$AAN?$AAF?$AAC@ 10007a48     nandflash_lib:fmd.obj
 0001:00006aa4       ??_C@_1CK@BPDJENFF@?$AA?$FL?$AAF?$AAM?$AAD?$AA?$FN?$AA?5?$AA?$CL?$AA?$CL?$AAF?$AAM?$AAD?$AA_?$AAI?$AAn?$AAi?$AAt?$AA?$CI?$AA?$CJ?$AA?$AN?$AA?6?$AA?$AA@ 10007aa4     nandflash_lib:fmd.obj
 0001:00006ad0       ??_C@_1DG@KFOEAPMB@?$AA?$FL?$AAF?$AAM?$AAD?$AA?$FN?$AA?5?$AA?9?$AA?9?$AAF?$AAM?$AAD?$AA_?$AAR?$AAe?$AAa?$AAd?$AAS?$AAe?$AAc?$AAt?$AAo?$AAr?$AA?$CI?$AA?$CJ?$AA?$AN?$AA?6?$AA?$AA@ 10007ad0     nandflash_lib:fmd.obj
 0001:00006b08       ??_C@_1EE@GBIOFBOI@?$AA?$FL?$AAF?$AAM?$AAD?$AA?$FN?$AA?5?$AA?$CL?$AA?$CL?$AAF?$AAM?$AAD?$AA_?$AAR?$AAe?$AAa?$AAd?$AAS?$AAe?$AAc?$AAt?$AAo?$AAr?$AA?$CI?$AA0?$AAx?$AA?$CF?$AA0?$AA8?$AAx?$AA?$CJ?$AA?5?$AA?$AN@ 10007b08     nandflash_lib:fmd.obj
 0001:00006b4c       ??_C@_1DG@GIOJHDKD@?$AA?$FL?$AAF?$AAM?$AAD?$AA?$FN?$AA?5?$AA?9?$AA?9?$AAF?$AAM?$AAD?$AA_?$AAE?$AAr?$AAa?$AAs?$AAe?$AAB?$AAl?$AAo?$AAc?$AAk?$AA?$CI?$AA?$CJ?$AA?$AN?$AA?6?$AA?$AA@ 10007b4c     nandflash_lib:fmd.obj
 0001:00006b88       ??_C@_1EE@NIOBLPIK@?$AA?$FL?$AAF?$AAM?$AAD?$AA?$FN?$AA?5?$AA?$CL?$AA?$CL?$AAF?$AAM?$AAD?$AA_?$AAE?$AAr?$AAa?$AAs?$AAe?$AAB?$AAl?$AAo?$AAc?$AAk?$AA?$CI?$AA0?$AAx?$AA?$CF?$AA0?$AA8?$AAx?$AA?$CJ?$AA?5?$AA?$AN@ 10007b88     nandflash_lib:fmd.obj
 0001:00006bcc       ??_C@_1DI@NCDEMBNL@?$AA?$FL?$AAF?$AAM?$AAD?$AA?$FN?$AA?5?$AA?9?$AA?9?$AAF?$AAM?$AAD?$AA_?$AAW?$AAr?$AAi?$AAt?$AAe?$AAS?$AAe?$AAc?$AAt?$AAo?$AAr?$AA?$CI?$AA?$CJ?$AA?$AN?$AA?6?$AA?$AA@ 10007bcc     nandflash_lib:fmd.obj
 0001:00006c08       ??_C@_1EG@NJJBKPBA@?$AA?$FL?$AAF?$AAM?$AAD?$AA?$FN?$AA?5?$AA?$CL?$AA?$CL?$AAF?$AAM?$AAD?$AA_?$AAW?$AAr?$AAi?$AAt?$AAe?$AAS?$AAe?$AAc?$AAt?$AAo?$AAr?$AA?$CI?$AA0?$AAx?$AA?$CF?$AA0?$AA8?$AAx?$AA?$CJ?$AA?5@ 10007c08     nandflash_lib:fmd.obj
 0001:00006c50       ??_C@_1CO@DEAIDDGB@?$AA?$FL?$AAF?$AAM?$AAD?$AA?$FN?$AA?5?$AAF?$AAM?$AAD?$AA_?$AAP?$AAo?$AAw?$AAe?$AAr?$AAU?$AAp?$AA?$CI?$AA?$CJ?$AA?5?$AA?$AN?$AA?6?$AA?$AA@ 10007c50     nandflash_lib:fmd.obj
 0001:00006c80       ??_C@_1DC@IIEPHHBO@?$AA?$FL?$AAF?$AAM?$AAD?$AA?$FN?$AA?5?$AAF?$AAM?$AAD?$AA_?$AAP?$AAo?$AAw?$AAe?$AAr?$AAD?$AAo?$AAw?$AAn?$AA?$CI?$AA?$CJ?$AA?5?$AA?$AN?$AA?6?$AA?$AA@ 10007c80     nandflash_lib:fmd.obj
 0001:00006cb8       ??_C@_1HA@LOEMGLDN@?$AA?$FL?$AAF?$AAM?$AAD?$AA?3?$AAE?$AAR?$AAR?$AA?$FN?$AA?5?$AAF?$AAM?$AAD?$AA_?$AAO?$AAE?$AAM?$AAI?$AAo?$AAC?$AAo?$AAn?$AAt?$AAr?$AAo?$AAl?$AA?$CI?$AA?$CJ?$AA?5?$AA?3?$AA?5?$AAU@ 10007cb8     nandflash_lib:fmd.obj
 0001:00006d28       ??_C@_1JC@PMEFDFOO@?$AA?$FL?$AAF?$AAM?$AAD?$AA?3?$AAE?$AAR?$AAR?$AA?$FN?$AA?5?$AAF?$AAM?$AAD?$AA_?$AAO?$AAE?$AAM?$AAI?$AAo?$AAC?$AAo?$AAn?$AAt?$AAr?$AAo?$AAl?$AA?$CI?$AA?$CJ?$AA?5?$AA?3?$AA?5?$AAI@ 10007d28     nandflash_lib:fmd.obj
 0001:00006dc0       ??_C@_1GI@IECKAGPB@?$AA?$FL?$AAF?$AAM?$AAD?$AA?$FN?$AA?5?$AAF?$AAM?$AAD?$AA_?$AAO?$AAE?$AAM?$AAI?$AAo?$AAC?$AAo?$AAn?$AAt?$AAr?$AAo?$AAl?$AA?$CI?$AA?$CJ?$AA?5?$AA?3?$AA?5?$AAI?$AAO?$AAC?$AAT?$AAL@ 10007dc0     nandflash_lib:fmd.obj
 0001:00006e28       ??_C@_1IM@EDIPKJBA@?$AA?$FL?$AAF?$AAM?$AAD?$AA?3?$AAE?$AAR?$AAR?$AA?$FN?$AA?5?$AAF?$AAM?$AAD?$AA_?$AAO?$AAE?$AAM?$AAI?$AAo?$AAC?$AAo?$AAn?$AAt?$AAr?$AAo?$AAl?$AA?$CI?$AA?$CJ?$AA?5?$AA?3?$AA?5?$AAI@ 10007e28     nandflash_lib:fmd.obj
 0001:00006eb8       ??_C@_1IM@MELEHNKL@?$AA?$FL?$AAF?$AAM?$AAD?$AA?3?$AAE?$AAR?$AAR?$AA?$FN?$AA?5?$AAF?$AAM?$AAD?$AA_?$AAO?$AAE?$AAM?$AAI?$AAo?$AAC?$AAo?$AAn?$AAt?$AAr?$AAo?$AAl?$AA?$CI?$AA?$CJ?$AA?5?$AA?3?$AA?5?$AAI@ 10007eb8     nandflash_lib:fmd.obj
 0001:00006f48       ??_C@_1IG@OODEBMOO@?$AA?$FL?$AAF?$AAM?$AAD?$AA?3?$AAE?$AAR?$AAR?$AA?$FN?$AA?5?$AAF?$AAM?$AAD?$AA_?$AAO?$AAE?$AAM?$AAI?$AAo?$AAC?$AAo?$AAn?$AAt?$AAr?$AAo?$AAl?$AA?$CI?$AA?$CJ?$AA?5?$AA?3?$AA?5?$AAI@ 10007f48     nandflash_lib:fmd.obj
 0001:00006fd0       ??_C@_1HM@GCHGJHIC@?$AA?$FL?$AAF?$AAM?$AAD?$AA?3?$AAE?$AAR?$AAR?$AA?$FN?$AA?5?$AAF?$AAM?$AAD?$AA_?$AAO?$AAE?$AAM?$AAI?$AAo?$AAC?$AAo?$AAn?$AAt?$AAr?$AAo?$AAl?$AA?$CI?$AA?$CJ?$AA?5?$AA?3?$AA?5?$AAI@ 10007fd0     nandflash_lib:fmd.obj
 0001:00007050       ??_C@_1HI@PBLDMNMD@?$AA?$FL?$AAF?$AAM?$AAD?$AA?3?$AAE?$AAR?$AAR?$AA?$FN?$AA?5?$AAF?$AAM?$AAD?$AA_?$AAO?$AAE?$AAM?$AAI?$AAo?$AAC?$AAo?$AAn?$AAt?$AAr?$AAo?$AAl?$AA?$CI?$AA?$CJ?$AA?5?$AA?3?$AA?5?$AAI@ 10008050     nandflash_lib:fmd.obj
 0001:000070c8       ??_C@_1HE@OGLFOGBF@?$AA?$FL?$AAF?$AAM?$AAD?$AA?3?$AAE?$AAR?$AAR?$AA?$FN?$AA?5?$AAF?$AAM?$AAD?$AA_?$AAO?$AAE?$AAM?$AAI?$AAo?$AAC?$AAo?$AAn?$AAt?$AAr?$AAo?$AAl?$AA?$CI?$AA?$CJ?$AA?5?$AA?3?$AA?5?$AAI@ 100080c8     nandflash_lib:fmd.obj
 0001:00007140       ??_C@_1HI@IGFCOJEK@?$AA?$FL?$AAF?$AAM?$AAD?$AA?3?$AAE?$AAR?$AAR?$AA?$FN?$AA?5?$AAF?$AAM?$AAD?$AA_?$AAO?$AAE?$AAM?$AAI?$AAo?$AAC?$AAo?$AAn?$AAt?$AAr?$AAo?$AAl?$AA?$CI?$AA?$CJ?$AA?5?$AA?3?$AA?5?$AAI@ 10008140     nandflash_lib:fmd.obj
 0001:000071b8       ??_C@_1HM@PMJCFCKO@?$AA?$FL?$AAF?$AAM?$AAD?$AA?3?$AAE?$AAR?$AAR?$AA?$FN?$AA?5?$AAF?$AAM?$AAD?$AA_?$AAO?$AAE?$AAM?$AAI?$AAo?$AAC?$AAo?$AAn?$AAt?$AAr?$AAo?$AAl?$AA?$CI?$AA?$CJ?$AA?5?$AA?3?$AA?5?$AAI@ 100081b8     nandflash_lib:fmd.obj
 0001:00007238       ??_C@_1HE@FBNPGBAL@?$AA?$FL?$AAF?$AAM?$AAD?$AA?3?$AAE?$AAR?$AAR?$AA?$FN?$AA?5?$AAF?$AAM?$AAD?$AA_?$AAO?$AAE?$AAM?$AAI?$AAo?$AAC?$AAo?$AAn?$AAt?$AAr?$AAo?$AAl?$AA?$CI?$AA?$CJ?$AA?5?$AA?3?$AA?5?$AAI@ 10008238     nandflash_lib:fmd.obj
 0001:000072b0       ??_C@_1HC@FHKPGEH@?$AA?$FL?$AAF?$AAM?$AAD?$AA?3?$AAE?$AAR?$AAR?$AA?$FN?$AA?5?$AAF?$AAM?$AAD?$AA_?$AAO?$AAE?$AAM?$AAI?$AAo?$AAC?$AAo?$AAn?$AAt?$AAr?$AAo?$AAl?$AA?$CI?$AA?$CJ?$AA?5?$AA?3?$AA?5?$AAI@ 100082b0     nandflash_lib:fmd.obj
 0001:00007328       ??_C@_1IO@GOBDNGHC@?$AA?$FL?$AAF?$AAM?$AAD?$AA?3?$AAE?$AAR?$AAR?$AA?$FN?$AA?5?$AAF?$AAM?$AAD?$AA_?$AAO?$AAE?$AAM?$AAI?$AAo?$AAC?$AAo?$AAn?$AAt?$AAr?$AAo?$AAl?$AA?$CI?$AA?$CJ?$AA?5?$AA?3?$AA?5?$AAI@ 10008328     nandflash_lib:fmd.obj
 0001:000073b8       ??_C@_1IK@GHPFDFMP@?$AA?$FL?$AAF?$AAM?$AAD?$AA?3?$AAE?$AAR?$AAR?$AA?$FN?$AA?5?$AAF?$AAM?$AAD?$AA_?$AAO?$AAE?$AAM?$AAI?$AAo?$AAC?$AAo?$AAn?$AAt?$AAr?$AAo?$AAl?$AA?$CI?$AA?$CJ?$AA?5?$AA?3?$AA?5?$AAI@ 100083b8     nandflash_lib:fmd.obj
 0001:00007448       ??_C@_1HM@EBIHEEGK@?$AAF?$AAM?$AAD?$AA_?$AAO?$AAE?$AAM?$AAI?$AAo?$AAC?$AAo?$AAn?$AAt?$AAr?$AAo?$AAl?$AA?3?$AA?5?$AAI?$AAO?$AAC?$AAT?$AAL?$AA_?$AAF?$AAM?$AAD?$AA_?$AAG?$AAE?$AAT?$AA_@ 10008448     nandflash_lib:fmd.obj
 0001:000074c8       ??_C@_1GK@LFCEEHMF@?$AA?$FL?$AAF?$AAM?$AAD?$AA?$FN?$AA?5?$AAF?$AAM?$AAD?$AA_?$AAO?$AAE?$AAM?$AAI?$AAo?$AAC?$AAo?$AAn?$AAt?$AAr?$AAo?$AAl?$AA?$CI?$AA?$CJ?$AA?5?$AA?3?$AA?5?$AAI?$AAO?$AAC?$AAT?$AAL@ 100084c8     nandflash_lib:fmd.obj
 0001:00007534       ??_C@_1CM@JDFGCIKF@?$AA?$FL?$AAF?$AAM?$AAD?$AA?$FN?$AA?5?$AAF?$AAM?$AAD?$AA_?$AAD?$AAe?$AAi?$AAn?$AAi?$AAt?$AA?$CI?$AA?$CJ?$AA?5?$AA?$AN?$AA?6?$AA?$AA@ 10008534     nandflash_lib:fmd.obj
 0001:00007560       ??_C@_1MK@CALONCNE@?$AA?$FL?$AAF?$AAM?$AAD?$AA?$FN?$AA?5?$AAF?$AAM?$AAD?$AA_?$AAG?$AAe?$AAt?$AAI?$AAn?$AAf?$AAo?$AA?$CI?$AA?$CJ?$AA?5?$AA?3?$AA?5?$AAN?$AAU?$AAM?$AAB?$AAL?$AAO?$AAC?$AAK?$AAS?$AA?5@ 10008560     nandflash_lib:fmd.obj
 0001:00007630       ??_C@_1FM@GNKANMNF@?$AA?$FL?$AAF?$AAM?$AAD?$AA?3?$AAE?$AAR?$AAR?$AA?$FN?$AA?5?$AAF?$AAM?$AAD?$AA_?$AAG?$AAe?$AAt?$AAI?$AAn?$AAf?$AAo?$AA?$CI?$AA?$CJ?$AA?5?$AA?3?$AA?5?$AAI?$AAn?$AAv?$AAa?$AAl?$AAi@ 10008630     nandflash_lib:fmd.obj
 0001:0000768c       ??_C@_1DO@LCLHBDFN@?$AA?$FL?$AAF?$AAM?$AAD?$AA?$FN?$AA?5?$AA?9?$AA?9?$AAF?$AAM?$AAD?$AA_?$AAG?$AAe?$AAt?$AAB?$AAl?$AAo?$AAc?$AAk?$AAS?$AAt?$AAa?$AAt?$AAu?$AAs?$AA?$CI?$AA?$CJ?$AA?$AN?$AA?6?$AA?$AA@ 1000868c     nandflash_lib:fmd.obj
 0001:000076d0       ??_C@_1EM@JCGKGEMG@?$AA?$FL?$AAF?$AAM?$AAD?$AA?$FN?$AA?5?$AA?$CL?$AA?$CL?$AAF?$AAM?$AAD?$AA_?$AAG?$AAe?$AAt?$AAB?$AAl?$AAo?$AAc?$AAk?$AAS?$AAt?$AAa?$AAt?$AAu?$AAs?$AA?$CI?$AA0?$AAx?$AA?$CF?$AA0?$AA8@ 100086d0     nandflash_lib:fmd.obj
 0001:0000771c       ??_C@_1DO@FMLFBNHL@?$AA?$FL?$AAF?$AAM?$AAD?$AA?$FN?$AA?5?$AA?9?$AA?9?$AAF?$AAM?$AAD?$AA_?$AAS?$AAe?$AAt?$AAB?$AAl?$AAo?$AAc?$AAk?$AAS?$AAt?$AAa?$AAt?$AAu?$AAs?$AA?$CI?$AA?$CJ?$AA?$AN?$AA?6?$AA?$AA@ 1000871c     nandflash_lib:fmd.obj
 0001:00007760       ??_C@_1FM@BJDHFGAH@?$AA?$FL?$AAF?$AAM?$AAD?$AA?$FN?$AA?5?$AA?$CL?$AA?$CL?$AAF?$AAM?$AAD?$AA_?$AAS?$AAe?$AAt?$AAB?$AAl?$AAo?$AAc?$AAk?$AAS?$AAt?$AAa?$AAt?$AAu?$AAs?$AA?$CI?$AA0?$AAx?$AA?$CF?$AA0?$AA8@ 10008760     nandflash_lib:fmd.obj
 0001:000077bc       ??_C@_1CG@OIMPPJOM@?$AA?$CF?$AAc?$AAE?$AAC?$AAC?$AA?5?$AAa?$AAr?$AAe?$AAa?$AA?5?$AAe?$AAr?$AAr?$AAo?$AAr?$AA?$AN?$AA?6?$AA?$AA@ 100087bc     nandflash_lib:fmd.obj
 0001:000077e8       ??_C@_1EE@IIOPHMHH@?$AA?$CF?$AAc?$AAE?$AAC?$AAC?$AA?5?$AAU?$AAn?$AAc?$AAo?$AAr?$AAr?$AAe?$AAc?$AAt?$AAa?$AAb?$AAl?$AAe?$AA?5?$AAe?$AAr?$AAr?$AAo?$AAr?$AA?$CI?$AA0?$AAx?$AA?$CF?$AAx?$AA?$CJ?$AA?$AN@ 100087e8     nandflash_lib:fmd.obj
 0001:00007830       ??_C@_1GC@JFNFCBDJ@?$AA?$CF?$AAc?$AAE?$AAC?$AAC?$AA?5?$AAc?$AAo?$AAr?$AAr?$AAe?$AAc?$AAt?$AAa?$AAb?$AAl?$AAe?$AA?5?$AAe?$AAr?$AAr?$AAo?$AAr?$AA?$CI?$AA0?$AAx?$AA?$CF?$AAx?$AA?$CJ?$AA?4?$AA?5?$AAB@ 10008830     nandflash_lib:fmd.obj
 0001:00007898       ??_C@_1FM@NNIMNCHJ@?$AA?$CD?$AA?$CD?$AA?$CD?$AA?$CD?$AA?5?$AAF?$AAM?$AAD?$AA_?$AAD?$AAR?$AAI?$AAV?$AAE?$AAR?$AA?3?$AA?3?$AAE?$AAC?$AAC?$AA_?$AAC?$AAo?$AAr?$AAr?$AAe?$AAc?$AAt?$AAD?$AAa?$AAt?$AAa@ 10008898     nandflash_lib:fmd.obj
 0001:000078f8       ??_C@_1EE@EOEDJNKI@?$AA?$CD?$AA?$CD?$AA?$CD?$AA?$CD?$AA?5?$AAS?$AAE?$AAC?$AAC?$AA1?$AA?5?$AAE?$AAC?$AAC?$AA?5?$AAc?$AAo?$AAr?$AAr?$AAe?$AAc?$AAt?$AAi?$AAo?$AAn?$AA?5?$AAf?$AAa?$AAi?$AAl?$AAe?$AAd@ 100088f8     nandflash_lib:fmd_SB.obj
 0001:00007940       ??_C@_1IE@KBOEGDCN@?$AA?$FL?$AAF?$AAM?$AAD?$AA?3?$AAE?$AAR?$AAR?$AA?$FN?$AA?5?$AAF?$AAM?$AAD?$AA_?$AAS?$AAB?$AA_?$AAR?$AAe?$AAa?$AAd?$AAS?$AAe?$AAc?$AAt?$AAo?$AAr?$AA?$CI?$AA0?$AAx?$AA?$CF?$AA0@ 10008940     nandflash_lib:fmd_SB.obj
 0001:000079c8       ??_C@_1EC@PFMKCOPL@?$AA?$CD?$AA?$CD?$AA?$CD?$AA?$CD?$AA?5?$AAF?$AAM?$AAD?$AA_?$AAD?$AAR?$AAI?$AAV?$AAE?$AAR?$AA?3?$AA?3?$AA?3?$AAF?$AAM?$AAD?$AA_?$AAs?$AAb?$AAw?$AAr?$AAi?$AAt?$AAe?$AA?5?$AA?$AN?$AA?6@ 100089c8     nandflash_lib:fmd_SB.obj
 0001:00007a10       ??_C@_1KE@DPJJGOBE@?$AA?$FL?$AAF?$AAM?$AAD?$AA?3?$AAE?$AAR?$AAR?$AA?$FN?$AA?5?$AAF?$AAM?$AAD?$AA_?$AAS?$AAB?$AA_?$AAR?$AAe?$AAa?$AAd?$AAS?$AAe?$AAc?$AAt?$AAo?$AAr?$AA?$CI?$AA0?$AAx?$AA?$CF?$AA0@ 10008a10     nandflash_lib:fmd_SB.obj
 0001:00007ab8       ??_C@_1EI@FLIMLDIA@?$AAS?$AAB?$AA?$CD?$AA?$CD?$AA?$CD?$AA?$CD?$AA?$CD?$AA?$CD?$AA?$CD?$AA?$CD?$AA?5?$AAE?$AAr?$AAr?$AAo?$AAr?$AA?5?$AAE?$AAr?$AAa?$AAs?$AAi?$AAn?$AAg?$AA?5?$AAb?$AAl?$AAo?$AAc?$AAk?$AA?5?$AA?$CF@ 10008ab8     nandflash_lib:fmd_SB.obj
 0001:00007b00       ??_C@_1GK@LODCJMCG@?$AAS?$AAB?$AA?$CD?$AA?$CD?$AA?$CD?$AA?$CD?$AA?$CD?$AA?$CD?$AA?$CD?$AA?$CD?$AA?5?$AAE?$AAr?$AAr?$AAo?$AAr?$AA?5?$AAE?$AAr?$AAa?$AAs?$AAi?$AAn?$AAg?$AA?5?$AAb?$AAl?$AAo?$AAc?$AAk?$AA?5?$AA?$CI@ 10008b00     nandflash_lib:fmd_SB.obj
 0001:00007b70       ??_C@_1EI@FNFJBDMN@?$AAF?$AAM?$AAD?$AA_?$AAS?$AAB?$AA_?$AAG?$AAe?$AAt?$AAB?$AAl?$AAo?$AAc?$AAk?$AAS?$AAt?$AAa?$AAt?$AAu?$AAs?$AA?5?$AA?$CI?$AA0?$AAx?$AA?$CF?$AAx?$AA?$CJ?$AA0?$AAx?$AA?$CF?$AAx@ 10008b70     nandflash_lib:fmd_SB.obj
 0001:00007bb8       ??_C@_1EI@GHHOGMMA@?$AA?$CD?$AA?$CD?$AA?$CD?$AA?$CD?$AA?5?$AAF?$AAM?$AAD?$AA_?$AAD?$AAR?$AAI?$AAV?$AAE?$AAR?$AA?3?$AA?3?$AA?3?$AAF?$AAM?$AAD?$AA_?$AAs?$AAb?$AAs?$AAe?$AAt?$AAb?$AAl?$AAo?$AAc?$AAk@ 10008bb8     nandflash_lib:fmd_SB.obj
 0001:00007c00       ??_C@_1HO@NOFENAEF@?$AAN?$AAA?$AAN?$AAD?$AA_?$AAL?$AAB?$AA_?$AAW?$AAr?$AAi?$AAt?$AAe?$AAS?$AAe?$AAc?$AAt?$AAo?$AAr?$AAI?$AAn?$AAf?$AAo?$AA?$CI?$AA?$CJ?$AA?5?$AA?$CD?$AA?$CD?$AA?$CD?$AA?$CD?$AA?$CD?$AA?$CD@ 10008c00     nandflash_lib:fmd_SB.obj
 0001:00007c80       ??_C@_1KA@MADFDKCH@?$AAN?$AAA?$AAN?$AAD?$AA_?$AAL?$AAB?$AA_?$AAW?$AAr?$AAi?$AAt?$AAe?$AAS?$AAe?$AAc?$AAt?$AAo?$AAr?$AAI?$AAn?$AAf?$AAo?$AA?$CI?$AA?$CJ?$AA?5?$AA?$CD?$AA?$CD?$AA?$CD?$AA?$CD?$AA?$CD?$AA?$CD@ 10008c80     nandflash_lib:fmd_SB.obj
 0001:00007d20       ??_C@_1DK@IIJCIGLM@?$AAN?$AAA?$AAN?$AAD?$AA_?$AAS?$AAB?$AA_?$AAM?$AAa?$AAr?$AAk?$AAB?$AAl?$AAo?$AAc?$AAk?$AAB?$AAa?$AAd?$AA?5?$AA0?$AAx?$AA?$CF?$AAx?$AA?5?$AA?$AN?$AA?6?$AA?$AA@ 10008d20     nandflash_lib:fmd_SB.obj
 0001:00007d60       ??_C@_1EI@LKAIBMKI@?$AAF?$AAM?$AAD?$AAS?$AAB?$AA?3?$AA?5?$AAI?$AAs?$AAB?$AAl?$AAo?$AAc?$AAk?$AAB?$AAa?$AAd?$AA?5?$AA?9?$AA?5?$AAP?$AAa?$AAg?$AAe?$AA?5?$AA?$CD?$AA?3?$AA?5?$AA0?$AAx?$AA?$CF?$AAx@ 10008d60     nandflash_lib:fmd_SB.obj
 0001:00007da8       ??_C@_1EC@MIDIOEBH@?$AA?$CD?$AA?$CD?$AA?$CD?$AA?$CD?$AA?5?$AAM?$AAE?$AAC?$AAC?$AA?5?$AAE?$AAC?$AAC?$AA?5?$AAc?$AAo?$AAr?$AAr?$AAe?$AAc?$AAt?$AAi?$AAo?$AAn?$AA?5?$AAf?$AAa?$AAi?$AAl?$AAe?$AAd?$AA?6@ 10008da8     nandflash_lib:fmd_LB.obj
 0001:00007df0       ??_C@_1EE@BJGBLBPK@?$AA?$CD?$AA?$CD?$AA?$CD?$AA?$CD?$AA?5?$AAS?$AAE?$AAC?$AAC?$AA2?$AA?5?$AAE?$AAC?$AAC?$AA?5?$AAc?$AAo?$AAr?$AAr?$AAe?$AAc?$AAt?$AAi?$AAo?$AAn?$AA?5?$AAf?$AAa?$AAi?$AAl?$AAe?$AAd@ 10008df0     nandflash_lib:fmd_LB.obj
 0001:00007e38       ??_C@_1JO@KGEHFAGN@?$AA?$CD?$AA?$CD?$AA?$CD?$AA?$CD?$AA?$CD?$AA?$CD?$AA?$CD?$AA?$CD?$AA?5?$AAF?$AAA?$AAT?$AAA?$AAL?$AA?5?$AAE?$AAR?$AAR?$AAO?$AAR?$AA?5?$AA?$DN?$AA?$DO?$AA?5?$AAF?$AAM?$AAD?$AA?3?$AA?3?$AAF?$AAM?$AAD@ 10008e38     nandflash_lib:fmd_LB.obj
 0001:00007ed8       ??_C@_1FI@OJKCHNJE@?$AA?$CD?$AA?$CD?$AA?$CD?$AA?$CD?$AA?5?$AAF?$AAM?$AAD?$AA_?$AAD?$AAR?$AAI?$AAV?$AAE?$AAR?$AA?3?$AA?3?$AA?3?$AAF?$AAM?$AAD?$AA_?$AAL?$AAB?$AA_?$AAR?$AAE?$AAA?$AAD?$AAS?$AAE?$AAC@ 10008ed8     nandflash_lib:fmd_LB.obj
 0001:00007f30       ??_C@_1CK@HAMBFOOG@?$AA?6?$AA?$CD?$AA?$CD?$AA?$CD?$AA?$CD?$AA?5?$AAS?$AAE?$AAC?$AAC?$AAB?$AAu?$AAf?$AA?5?$AA?3?$AA?5?$AA0?$AAx?$AA?$CF?$AAx?$AA?$AA@ 10008f30     nandflash_lib:fmd_LB.obj
 0001:00007f60       ??_C@_1LC@KECPJPGE@?$AA?6?$AA?$CD?$AA?$CD?$AA?$CD?$AA?$CD?$AA?5?$AAR?$AAa?$AAw?$AAS?$AAe?$AAc?$AAt?$AAo?$AAr?$AAI?$AAn?$AAf?$AAo?$AA?3?$AAb?$AAO?$AAE?$AAM?$AAR?$AAe?$AAs?$AAe?$AAr?$AAv?$AAe?$AAd@ 10008f60     nandflash_lib:fmd_LB.obj
 0001:00008018       ??_C@_1JO@PCGHDDKM@?$AA?$CD?$AA?$CD?$AA?$CD?$AA?$CD?$AA?5?$AAW?$AAa?$AAr?$AAn?$AAi?$AAn?$AAg?$AA?3?$AAN?$AAA?$AAN?$AAD?$AA_?$AAL?$AAB?$AA_?$AAR?$AAe?$AAa?$AAd?$AAS?$AAe?$AAc?$AAt?$AAo?$AAr?$AAI@ 10009018     nandflash_lib:fmd_LB.obj
 0001:000080b8       ??_C@_1GO@NKGLNICF@?$AAF?$AAM?$AAD?$AA_?$AAW?$AAr?$AAi?$AAt?$AAe?$AAS?$AAe?$AAc?$AAt?$AAo?$AAr?$AA?$CI?$AA?$CJ?$AA?5?$AA?$CD?$AA?$CD?$AA?$CD?$AA?$CD?$AA?$CD?$AA?$CD?$AA?$CD?$AA?$CD?$AA?5?$AAE?$AAr?$AAr?$AAo?$AAr@ 100090b8     nandflash_lib:fmd_LB.obj
 0001:00008128       ??_C@_1JA@LPLJFJAA@?$AAF?$AAM?$AAD?$AA_?$AAW?$AAr?$AAi?$AAt?$AAe?$AAS?$AAe?$AAc?$AAt?$AAo?$AAr?$AA?$CI?$AA?$CJ?$AA?5?$AA?$CD?$AA?$CD?$AA?$CD?$AA?$CD?$AA?$CD?$AA?$CD?$AA?$CD?$AA?$CD?$AA?5?$AAE?$AAr?$AAr?$AAo?$AAr@ 10009128     nandflash_lib:fmd_LB.obj
 0001:000081b8       ??_C@_1KA@EOMJLALM@?$AA?$CD?$AA?$CD?$AA?$CD?$AA?$CD?$AA?$CD?$AA?$CD?$AA?$CD?$AA?$CD?$AA?5?$AAF?$AAA?$AAT?$AAA?$AAL?$AA?5?$AAE?$AAR?$AAR?$AAO?$AAR?$AA?5?$AA?$DN?$AA?$DO?$AA?5?$AAF?$AAM?$AAD?$AA?3?$AA?3?$AAF?$AAM?$AAD@ 100091b8     nandflash_lib:fmd_LB.obj
 0001:00008258       ??_C@_1EA@IEIBHMGE@?$AAF?$AAM?$AAD?$AA?3?$AA?3?$AAF?$AAM?$AAD?$AA_?$AAL?$AAB?$AA_?$AAW?$AAr?$AAi?$AAt?$AAe?$AAS?$AAe?$AAc?$AAt?$AAo?$AAr?$AA?5?$AA0?$AAx?$AA?$CF?$AAx?$AA?5?$AA?$AN?$AA?6?$AA?$AA@ 10009258     nandflash_lib:fmd_LB.obj
 0001:00008298       ??_C@_1KA@EJBNLLKN@?$AAN?$AAA?$AAN?$AAD?$AA_?$AAL?$AAB?$AA_?$AAW?$AAr?$AAi?$AAt?$AAe?$AAS?$AAe?$AAc?$AAt?$AAo?$AAr?$AAI?$AAn?$AAf?$AAo?$AA?$CI?$AA?$CJ?$AA?5?$AA?$CD?$AA?$CD?$AA?$CD?$AA?$CD?$AA?$CD?$AA?$CD@ 10009298     nandflash_lib:fmd_LB.obj
 0001:00008338       ??_C@_1EI@DHEIJEEH@?$AAL?$AAB?$AA?$CD?$AA?$CD?$AA?$CD?$AA?$CD?$AA?$CD?$AA?$CD?$AA?$CD?$AA?$CD?$AA?5?$AAE?$AAr?$AAr?$AAo?$AAr?$AA?5?$AAE?$AAr?$AAa?$AAs?$AAi?$AAn?$AAg?$AA?5?$AAb?$AAl?$AAo?$AAc?$AAk?$AA?5?$AA?$CF@ 10009338     nandflash_lib:fmd_LB.obj
 0001:00008380       ??_C@_1GK@OKKGODKO@?$AAL?$AAB?$AA?$CD?$AA?$CD?$AA?$CD?$AA?$CD?$AA?$CD?$AA?$CD?$AA?$CD?$AA?$CD?$AA?5?$AAE?$AAr?$AAr?$AAo?$AAr?$AA?5?$AAE?$AAr?$AAa?$AAs?$AAi?$AAn?$AAg?$AA?5?$AAb?$AAl?$AAo?$AAc?$AAk?$AA?5?$AA?$CI@ 10009380     nandflash_lib:fmd_LB.obj
 0001:000083ec       ??_C@_1DE@BBFDADKE@?$AAF?$AAM?$AAD?$AA_?$AAL?$AAB?$AA_?$AAE?$AAr?$AAa?$AAs?$AAe?$AAB?$AAl?$AAo?$AAc?$AAk?$AA?5?$AA0?$AAx?$AA?$CF?$AAx?$AA?5?$AA?$AN?$AA?6?$AA?$AA@ 100093ec     nandflash_lib:fmd_LB.obj
 0001:00008420       ??_C@_1EK@GCDGPFMB@?$AAL?$AAB?$AA?$CD?$AA?$CD?$AA?$CD?$AA?$CD?$AA?$CD?$AA?$CD?$AA?$CD?$AA?$CD?$AA?5?$AAE?$AAr?$AAr?$AAo?$AAr?$AA?5?$AAE?$AAr?$AAa?$AAs?$AAi?$AAn?$AAg?$AA?5?$AAS?$AAe?$AAc?$AAt?$AAo?$AAr?$AA?5@ 10009420     nandflash_lib:fmd_LB.obj
 0001:00008470       ??_C@_1GM@GEHKIIGM@?$AAL?$AAB?$AA?$CD?$AA?$CD?$AA?$CD?$AA?$CD?$AA?$CD?$AA?$CD?$AA?$CD?$AA?$CD?$AA?5?$AAE?$AAr?$AAr?$AAo?$AAr?$AA?5?$AAE?$AAr?$AAa?$AAs?$AAi?$AAn?$AAg?$AA?5?$AAS?$AAe?$AAc?$AAt?$AAo?$AAr?$AA?5@ 10009470     nandflash_lib:fmd_LB.obj
 0001:000084dc       ??_C@_1DG@JKIIFKAC@?$AAF?$AAM?$AAD?$AA_?$AAL?$AAB?$AA_?$AAE?$AAr?$AAa?$AAs?$AAe?$AAS?$AAe?$AAc?$AAt?$AAo?$AAr?$AA?5?$AA0?$AAx?$AA?$CF?$AAx?$AA?5?$AA?$AN?$AA?6?$AA?$AA@ 100094dc     nandflash_lib:fmd_LB.obj
 0001:00008518       ??_C@_1EI@HKNAFCJH@?$AAF?$AAM?$AAD?$AA_?$AAL?$AAB?$AA_?$AAG?$AAe?$AAt?$AAB?$AAl?$AAo?$AAc?$AAk?$AAS?$AAt?$AAa?$AAt?$AAu?$AAs?$AA?5?$AA?$CI?$AA0?$AAx?$AA?$CF?$AAx?$AA?$CJ?$AA0?$AAx?$AA?$CF?$AAx@ 10009518     nandflash_lib:fmd_LB.obj
 0001:00008560       ??_C@_1EK@COBOEOKO@?$AAF?$AAM?$AAD?$AA_?$AAL?$AAB?$AA_?$AAG?$AAe?$AAt?$AAS?$AAe?$AAc?$AAt?$AAo?$AAr?$AAS?$AAt?$AAa?$AAt?$AAu?$AAs?$AA?5?$AA?$CI?$AA0?$AAx?$AA?$CF?$AAx?$AA?$CJ?$AA0?$AAx?$AA?$CF@ 10009560     nandflash_lib:fmd_LB.obj
 0001:000085ac       ??_C@_1DK@GDIFKBEL@?$AAN?$AAA?$AAN?$AAD?$AA_?$AAL?$AAB?$AA_?$AAM?$AAa?$AAr?$AAk?$AAB?$AAl?$AAo?$AAc?$AAk?$AAB?$AAa?$AAd?$AA?5?$AA0?$AAx?$AA?$CF?$AAx?$AA?5?$AA?$AN?$AA?6?$AA?$AA@ 100095ac     nandflash_lib:fmd_LB.obj
 0001:000085e8       ??_C@_1DM@EDLPFHB@?$AAN?$AAA?$AAN?$AAD?$AA_?$AAL?$AAB?$AA_?$AAM?$AAa?$AAr?$AAk?$AAS?$AAe?$AAc?$AAt?$AAo?$AAr?$AAB?$AAa?$AAd?$AA?5?$AA0?$AAx?$AA?$CF?$AAx?$AA?5?$AA?$AN?$AA?6?$AA?$AA@ 100095e8     nandflash_lib:fmd_LB.obj
 0001:00008628       ??_C@_1EI@PLIHPPPJ@?$AAF?$AAM?$AAD?$AAL?$AAB?$AA?3?$AA?5?$AAI?$AAs?$AAB?$AAl?$AAo?$AAc?$AAk?$AAB?$AAa?$AAd?$AA?5?$AA?9?$AA?5?$AAP?$AAa?$AAg?$AAe?$AA?5?$AA?$CD?$AA?3?$AA?5?$AA0?$AAx?$AA?$CF?$AAx@ 10009628     nandflash_lib:fmd_LB.obj
 0001:00008698       ?GetDeviceInfo@@YAHPAUtagSTORAGEDEVICEINFO@@@Z 10009698 f   fal:falmain.obj
 0001:00008744       DllEntry                   10009744 f   fal:falmain.obj
 0001:00008804       DSK_Init                   10009804 f   fal:falmain.obj
 0001:00009798       DSK_Deinit                 1000a798 f   fal:falmain.obj
 0001:00009b18       DSK_Open                   1000ab18 f   fal:falmain.obj
 0001:00009b74       DSK_Close                  1000ab74 f   fal:falmain.obj
 0001:00009bd0       DSK_Read                   1000abd0 f   fal:falmain.obj
 0001:00009c2c       DSK_Write                  1000ac2c f   fal:falmain.obj
 0001:00009c88       DSK_Seek                   1000ac88 f   fal:falmain.obj
 0001:00009cec       DSK_IOControl              1000acec f   fal:falmain.obj
 0001:0000ade8       DSK_PowerUp                1000bde8 f   fal:falmain.obj
 0001:0000ae08       DSK_PowerDown              1000be08 f   fal:falmain.obj
 0001:0000ae28       ?GetFMDInterface@@YAXPAU_DEVICE@@@Z 1000be28 f   fal:falmain.obj
 0001:0000af58       ?GetFALObject@@YAPAVFal@@KK@Z 1000bf58 f   fal:falmain.obj
 0001:0000b01c       ?GetDiskInfo@@YAHPAU_DISK_INFO@@@Z 1000c01c f   fal:falmain.obj
 0001:0000b0d0       ?CheckSg@@YAHPAU_SG_REQ@@HPAHPAK@Z 1000c0d0 f   fal:falmain.obj
 0001:0000bb78       ?GetPhysSectorAddr@@YAHPAK0K@Z 1000cb78 f   fal:falmain.obj
 0001:0000bd44       ?ReadFromMedia@@YAHPAU_SG_REQ@@@Z 1000cd44 f   fal:falmain.obj
 0001:0000c26c       ?WriteToMedia@@YAHPAU_SG_REQ@@@Z 1000d26c f   fal:falmain.obj
 0001:0000c790       ?DeleteSectors@@YAHPAU_DELETE_SECTOR_INFO@@@Z 1000d790 f   fal:falmain.obj
 0001:0000c8d0       ?SecureWipe@@YAHPAU_DELETE_SECTOR_INFO@@@Z 1000d8d0 f   fal:falmain.obj
 0001:0000ca4c       ?SetSecureWipeFlag@@YAHPAU_DELETE_SECTOR_INFO@@@Z 1000da4c f   fal:falmain.obj
 0001:0000cb98       ?FormatMedia@@YAHXZ        1000db98 f   fal:falmain.obj
 0001:0000cd24       ?GetPowerCapabilities@@YAHPAU_POWER_CAPABILITIES@@@Z 1000dd24 f   fal:falmain.obj
 0001:0000cd68       ?SetPowerState@@YAHPAW4_CEDEVICE_POWER_STATE@@@Z 1000dd68 f   fal:falmain.obj
 0001:0000cdfc       ?GetPowerState@@YAHPAW4_CEDEVICE_POWER_STATE@@@Z 1000ddfc f   fal:falmain.obj
 0001:0000ce38       ?ComputeLog2@@YAEK@Z       1000de38 f   fal:falmain.obj
 0001:0000cec4       ?CalculateLogicalRange@@YAHPAU_FlashRegion@@@Z 1000dec4 f   fal:falmain.obj
 0001:0000d070       ?CalculatePhysRange@@YAHPAU_FlashRegion@@@Z 1000e070 f   fal:falmain.obj
 0001:0000d204       ?GetNumLogSectors@Fal@@QAAKXZ 1000e204 f i fal:falmain.obj
 0001:0000d234       ?GetNumPhysSectors@Fal@@QAAKXZ 1000e234 f i fal:falmain.obj
 0001:0000d27c       ??0XipFal@@QAA@KKH@Z       1000e27c f i fal:falmain.obj
 0001:0000d2cc       ??_GFal@@QAAPAXI@Z         1000e2cc f i fal:falmain.obj
 0001:0000d310       ?GetFlashRegion@Fal@@QAAPAU_FlashRegion@@XZ 1000e310 f i fal:falmain.obj
 0001:0000d340       ??0Fal@@QAA@KKH@Z          1000e340 f   fal:fal.obj
 0001:0000d460       ??1Fal@@QAA@XZ             1000e460 f   fal:fal.obj
 0001:0000d4ec       ?FormatRegion@Fal@@QAAHXZ  1000e4ec f   fal:fal.obj
 0001:0000d83c       ?ReadFromMedia@Fal@@QAAHPAU_SG_REQ@@H@Z 1000e83c f   fal:fal.obj
 0001:0000de2c       ?WriteToMedia@Fal@@QAAHPAU_SG_REQ@@H@Z 1000ee2c f   fal:fal.obj
 0001:0000e224       ?IsInRange@Fal@@QAAHKK@Z   1000f224 f   fal:fal.obj
 0001:0000e2a8       ?StartupFAL@Fal@@UAAHPAU_FlashRegion@@@Z 1000f2a8 f   fal:fal.obj
 0001:0000e4b8       ?ShutdownFAL@Fal@@UAAHXZ   1000f4b8 f   fal:fal.obj
 0001:0000e650       ?StartupFAL@XipFal@@UAAHPAU_FlashRegion@@@Z 1000f650 f   fal:fal.obj
 0001:0000e760       ?BuildupMappingInfo@XipFal@@MAAHXZ 1000f760 f   fal:fal.obj
 0001:0000ec88       ?InternalWriteToMedia@XipFal@@MAAKKKPAE@Z 1000fc88 f   fal:fal.obj
 0001:0000f3c4       ?DeleteSectors@XipFal@@UAAHKK@Z 100103c4 f   fal:fal.obj
 0001:0000f3ec       ?SecureWipe@XipFal@@UAAHXZ 100103ec f   fal:fal.obj
 0001:0000f414       ?SetSecureWipeFlag@XipFal@@UAAKK@Z 10010414 f   fal:fal.obj
 0001:0000f43c       ??0FileSysFal@@QAA@KKH@Z   1001043c f   fal:fal.obj
 0001:0000f4e8       ?StartupFAL@FileSysFal@@UAAHPAU_FlashRegion@@@Z 100104e8 f   fal:fal.obj
 0001:0000f6c0       ?ShutdownFAL@FileSysFal@@UAAHXZ 100106c0 f   fal:fal.obj
 0001:0000f7b0       ?BuildupMappingInfo@FileSysFal@@MAAHXZ 100107b0 f   fal:fal.obj
 0001:00010374       ?InternalWriteToMedia@FileSysFal@@MAAKKKPAE@Z 10011374 f   fal:fal.obj
 0001:00010ad0       ?HandleWriteFailure@FileSysFal@@QAAHK@Z 10011ad0 f   fal:fal.obj
 0001:00010de8       ?DeleteSectors@FileSysFal@@UAAHKK@Z 10011de8 f   fal:fal.obj
 0001:00011270       ?SecureWipe@FileSysFal@@UAAHXZ 10012270 f   fal:fal.obj
 0001:000118a4       ?SetSecureWipeFlag@FileSysFal@@UAAKK@Z 100128a4 f   fal:fal.obj
 0001:00011b4c       ??_GSectorMgr@@QAAPAXI@Z   10012b4c f i fal:fal.obj
 0001:00011b90       ?CELOG_ReadSectors@@YAXKK@Z 10012b90 f i fal:fal.obj
 0001:00011be0       ?CELOG_WriteSectors@@YAXKK@Z 10012be0 f i fal:fal.obj
 0001:00011c30       ?MarkBlockUnusable@SectorMgr@@QAAHK@Z 10012c30 f i fal:fal.obj
 0001:00011c74       ?CELOG_DeleteSectors@@YAXKK@Z 10012c74 f i fal:fal.obj
 0001:00011cc4       ??0MappingTable@@QAA@KK@Z  10012cc4 f   fal:log2physmap.obj
 0001:00011d5c       ?Init@MappingTable@@QAAHPAU_FlashRegion@@@Z 10012d5c f   fal:log2physmap.obj
 0001:00012004       ?Deinit@MappingTable@@QAAHXZ 10013004 f   fal:log2physmap.obj
 0001:00012230       ?GetPhysicalSectorAddr@MappingTable@@QAAPAEKPAK@Z 10013230 f   fal:log2physmap.obj
 0001:00012974       ?MapLogicalSector@MappingTable@@QAAPAEKKPAK@Z 10013974 f   fal:log2physmap.obj
 0001:00012ffc       ?IsValidLogicalSector@MappingTable@@QAAHK@Z 10013ffc f   fal:log2physmap.obj
 0001:00013078       ?CELOG_GetPhysicalSectorAddr@@YAXKK@Z 10014078 f i fal:log2physmap.obj
 0001:000130c8       ?CELOG_MapLogicalSector@@YAXKKK@Z 100140c8 f i fal:log2physmap.obj
 0001:0001311c       ?Init@DirtyList@@QAAHPAU_FlashRegion@@@Z 1001411c f   fal:sectormgr.obj
 0001:000131c8       ?Deinit@DirtyList@@QAAHXZ  100141c8 f   fal:sectormgr.obj
 0001:00013208       ?AddDirtySectors@DirtyList@@QAAXKK@Z 10014208 f   fal:sectormgr.obj
 0001:000132fc       ?RemoveDirtySectors@DirtyList@@QAAHKK@Z 100142fc f   fal:sectormgr.obj
 0001:000133e8       ?GetDirtyCount@DirtyList@@QAAKK@Z 100143e8 f   fal:sectormgr.obj
 0001:00013448       ?Init@SMList@@QAAXXZ       10014448 f   fal:sectormgr.obj
 0001:00013498       ?Deinit@SMList@@QAAXXZ     10014498 f   fal:sectormgr.obj
 0001:00013694       ?AddSectors@SMList@@QAAHKK@Z 10014694 f   fal:sectormgr.obj
 0001:00013920       ?AreSectorsInList@SMList@@QAAKKK@Z 10014920 f   fal:sectormgr.obj
 0001:000139fc       ?UnionRunWithList@SMList@@AAAHKKK@Z 100149fc f   fal:sectormgr.obj
 0001:00013f44       ?RemoveRunIntersectionFromList@SMList@@AAAHKK@Z 10014f44 f   fal:sectormgr.obj
 0001:00014458       ??0SectorMgr@@QAA@XZ       10015458 f   fal:sectormgr.obj
 0001:000144c0       ??1SectorMgr@@QAA@XZ       100154c0 f   fal:sectormgr.obj
 0001:00014504       ?Init@SectorMgr@@QAAHPAU_FlashRegion@@PAVFal@@PAVCompactor@@@Z 10015504 f   fal:sectormgr.obj
 0001:00014638       ?Deinit@SectorMgr@@QAAHXZ  10015638 f   fal:sectormgr.obj
 0001:000146dc       ?AddSectorsToList@SectorMgr@@QAAHW4ListType@1@KK@Z 100156dc f   fal:sectormgr.obj
 0001:0001478c       ?AreSectorsInList@SectorMgr@@QAAKW4ListType@1@KK@Z 1001578c f   fal:sectormgr.obj
 0001:000147f8       ?UnmarkSectorsAsFree@SectorMgr@@QAAHKK@Z 100157f8 f   fal:sectormgr.obj
 0001:000148a0       ?GetNextFreeSector@SectorMgr@@QAAHPAKH@Z 100158a0 f   fal:sectormgr.obj
 0001:00014e88       ?GetNumberOfFreeSectors@SectorMgr@@QAAKXZ 10015e88 f   fal:sectormgr.obj
 0001:00014ed8       ?IsBlockFree@SectorMgr@@QAAHK@Z 10015ed8 f   fal:sectormgr.obj
 0001:00014f94       ?MarkSectorsAsDirty@SectorMgr@@QAAHKK@Z 10015f94 f   fal:sectormgr.obj
 0001:000150f4       ?UnmarkSectorsAsDirty@SectorMgr@@QAAHKK@Z 100160f4 f   fal:sectormgr.obj
 0001:000152c4       ?GetDirtyCount@SectorMgr@@QAAKK@Z 100162c4 f   fal:sectormgr.obj
 0001:0001534c       ?GetStartSectorInBlock@SectorMgr@@QAAKK@Z 1001634c f   fal:sectormgr.obj
 0001:000153e0       ?GetBlockFromSector@SectorMgr@@QAAKK@Z 100163e0 f   fal:sectormgr.obj
 0001:00015484       ?SanitizeRun@SectorMgr@@AAAHPAK0@Z 10016484 f   fal:sectormgr.obj
 0001:000155f8       GetCurrentThread           100165f8 f i fal:sectormgr.obj
 0001:00015610       ?GetStartPhysSector@Fal@@QAAKXZ 10016610 f i fal:sectormgr.obj
 0001:00015640       ?Init@Compactor@@QAAHPAU_FlashRegion@@PAVFileSysFal@@@Z 10016640 f   fal:compactor.obj
 0001:00015c1c       ?Deinit@Compactor@@QAAHXZ  10016c1c f   fal:compactor.obj
 0001:00015d84       ?StartCompactor@Compactor@@QAAHKKH@Z 10016d84 f   fal:compactor.obj
 0001:000161e8       ?GetCompactingBlock@Compactor@@QAAHPAK@Z 100171e8 f   fal:compactor.obj
 0001:000162d8       ?SetCompactingBlock@Compactor@@QAAHK@Z 100172d8 f   fal:compactor.obj
 0001:00016310       ?CompactorThread@Compactor@@QAAKXZ 10017310 f   fal:compactor.obj
 0001:000168d0       ?CompactBlock@Compactor@@QAAKKK@Z 100178d0 f   fal:compactor.obj
 0001:00017940       ?GetNextCompactionBlock@Compactor@@QAAKK@Z 10018940 f   fal:compactor.obj
 0001:00017a58       ?GetDirtiestBlock@Compactor@@IAAKK@Z 10018a58 f   fal:compactor.obj
 0001:00017c28       ?GetNextRandomBlock@Compactor@@IAAKK@Z 10018c28 f   fal:compactor.obj
 0001:00017d10       ?CompactorThread@@YAKPAX@Z 10018d10 f   fal:compactor.obj
 0001:00017d4c       SetEvent                   10018d4c f i fal:compactor.obj
 0001:00017d84       ResetEvent                 10018d84 f i fal:compactor.obj
 0001:00017dbc       ?GetNumDirtySectors@SectorMgr@@QAAKXZ 10018dbc f i fal:compactor.obj
 0001:00017dec       ?CELOG_CompactBlock@@YAXHK@Z 10018dec f i fal:compactor.obj
 0001:00017e74       FMDHOOK_HookInterface      10018e74 f   fmdhooklib:fmdhook.obj
 0001:00017e9c       FMDHOOK_UnhookInterface    10018e9c f   fmdhooklib:fmdhook.obj
 0001:00017eb0       GetNandInfo                10018eb0 f   nandflash_lib:fmd.obj
 0001:00017eec       FMD_Init                   10018eec f   nandflash_lib:fmd.obj
 0001:0001857c       FMD_ReadSector             1001957c f   nandflash_lib:fmd.obj
 0001:00018664       FMD_EraseBlock             10019664 f   nandflash_lib:fmd.obj
 0001:0001873c       FMD_WriteSector            1001973c f   nandflash_lib:fmd.obj
 0001:0001882c       FMD_PowerUp                1001982c f   nandflash_lib:fmd.obj
 0001:00018878       FMD_PowerDown              10019878 f   nandflash_lib:fmd.obj
 0001:000188c0       FMD_OEMIoControl           100198c0 f   nandflash_lib:fmd.obj
 0001:00018f68       FMD_Deinit                 10019f68 f   nandflash_lib:fmd.obj
 0001:00019024       FMD_GetInfo                1001a024 f   nandflash_lib:fmd.obj
 0001:00019258       FMD_GetBlockStatus         1001a258 f   nandflash_lib:fmd.obj
 0001:00019330       FMD_SetBlockStatus         1001a330 f   nandflash_lib:fmd.obj
 0001:00019414       ?ECC_CorrectData@@YAHKPAEIW4ECC_CORRECT_TYPE@@@Z 1001a414 f   nandflash_lib:fmd.obj
 0001:00019718       ?Init_NandController@@YAXXZ 1001a718 f   nandflash_lib:fmd.obj
 0001:00019790       FMD_SB_ReadSector          1001a790 f   nandflash_lib:fmd_SB.obj
 0001:00019cf0       FMD_SB_WriteSector         1001acf0 f   nandflash_lib:fmd_SB.obj
 0001:0001a324       FMD_SB_EraseBlock          1001b324 f   nandflash_lib:fmd_SB.obj
 0001:0001a564       FMD_SB_GetBlockStatus      1001b564 f   nandflash_lib:fmd_SB.obj
 0001:0001a63c       FMD_SB_SetBlockStatus      1001b63c f   nandflash_lib:fmd_SB.obj
 0001:0001a70c       NAND_SB_MarkBlockBad       1001b70c f   nandflash_lib:fmd_SB.obj
 0001:0001a9b4       NAND_SB_IsBlockBad         1001b9b4 f   nandflash_lib:fmd_SB.obj
 0001:0001ab7c       RAW_SB_ReadSector          1001bb7c f   nandflash_lib:fmd_SB.obj
 0001:0001adec       ?SubmitSpareAreaReadCmd@@YAXKK@Z 1001bdec f   nandflash_lib:fmd_LB.obj
 0001:0001af44       ?RestructSectorInfo@@YAXPAU_SectorInfo@@PAE@Z 1001bf44 f   nandflash_lib:fmd_LB.obj
 0001:0001b050       ?ReadOneSectorInfo@@YAXPAE@Z 1001c050 f   nandflash_lib:fmd_LB.obj
 0001:0001b168       FMD_LB_ReadSector          1001c168 f   nandflash_lib:fmd_LB.obj
 0001:0001b9a0       NAND_LB_ReadSectorInfo     1001c9a0 f   nandflash_lib:fmd_LB.obj
 0001:0001bbf8       FMD_LB_WriteSector         1001cbf8 f   nandflash_lib:fmd_LB.obj
 0001:0001c364       NAND_LB_WriteSectorInfo    1001d364 f   nandflash_lib:fmd_LB.obj
 0001:0001c784       FMD_LB_EraseBlock          1001d784 f   nandflash_lib:fmd_LB.obj
 0001:0001c9f8       FMD_LB_EraseSector         1001d9f8 f   nandflash_lib:fmd_LB.obj
 0001:0001cc60       FMD_LB_GetBlockStatus      1001dc60 f   nandflash_lib:fmd_LB.obj
 0001:0001cd78       FMD_LB_GetSectorStatus     1001dd78 f   nandflash_lib:fmd_LB.obj
 0001:0001ce84       FMD_LB_SetBlockStatus      1001de84 f   nandflash_lib:fmd_LB.obj
 0001:0001cf14       FMD_LB_SetSectorStatus     1001df14 f   nandflash_lib:fmd_LB.obj
 0001:0001cfa4       NAND_LB_MarkBlockBad       1001dfa4 f   nandflash_lib:fmd_LB.obj
 0001:0001d284       NAND_LB_MarkSectorBad      1001e284 f   nandflash_lib:fmd_LB.obj
 0001:0001d560       NAND_LB_IsBlockBad         1001e560 f   nandflash_lib:fmd_LB.obj
 0001:0001d788       NAND_LB_IsSectorBad        1001e788 f   nandflash_lib:fmd_LB.obj
 0001:0001d9ac       RAW_LB_ReadSector          1001e9ac f   nandflash_lib:fmd_LB.obj
 0001:0001dc3c       RdPage512                  1001ec3c f   nandflash_lib:nand.obj
 0001:0001dc7c       RdPage512Unalign           1001ec7c f   nandflash_lib:nand.obj
 0001:0001dd18       WrPage512                  1001ed18 f   nandflash_lib:nand.obj
 0001:0001dd58       WrPage512Unalign           1001ed58 f   nandflash_lib:nand.obj
 0001:0001ddf4       RdPageInfo                 1001edf4 f   nandflash_lib:nand.obj
 0001:0001de10       WrPageInfo                 1001ee10 f   nandflash_lib:nand.obj
 0001:0001de30       NKDbgPrintfW               1001ee30 f   coredll:COREDLL.dll
 0001:0001de40       RegisterDbgZones           1001ee40 f   coredll:COREDLL.dll
 0001:0001de50       GetProcAddressW            1001ee50 f   coredll:COREDLL.dll
 0001:0001de60       LoadLibraryW               1001ee60 f   coredll:COREDLL.dll
 0001:0001de70       InitializeCriticalSection  1001ee70 f   coredll:COREDLL.dll
 0001:0001de80       LocalAlloc                 1001ee80 f   coredll:COREDLL.dll
 0001:0001de90       InterlockedIncrement       1001ee90 f   coredll:COREDLL.dll
 0001:0001dea0       CeLogData                  1001eea0 f   coredll:COREDLL.dll
 0001:0001deb0       StringCchLengthW           1001eeb0 f   coredll:COREDLL.dll
 0001:0001dec0       StringCchVPrintfW          1001eec0 f   coredll:COREDLL.dll
 0001:0001ded0       FreeLibrary                1001eed0 f   coredll:COREDLL.dll
 0001:0001dee0       DeleteCriticalSection      1001eee0 f   coredll:COREDLL.dll
 0001:0001def0       LocalFree                  1001eef0 f   coredll:COREDLL.dll
 0001:0001df00       InterlockedDecrement       1001ef00 f   coredll:COREDLL.dll
 0001:0001df10       LeaveCriticalSection       1001ef10 f   coredll:COREDLL.dll
 0001:0001df20       SetLastError               1001ef20 f   coredll:COREDLL.dll
 0001:0001df30       EnterCriticalSection       1001ef30 f   coredll:COREDLL.dll
 0001:0001df40       CeCloseCallerBuffer        1001ef40 f   coredll:COREDLL.dll
 0001:0001df50       CeOpenCallerBuffer         1001ef50 f   coredll:COREDLL.dll
 0001:0001df60       GetLastError               1001ef60 f   coredll:COREDLL.dll
 0001:0001df70       CeGetThreadPriority        1001ef70 f   coredll:COREDLL.dll
 0001:0001df80       CloseHandle                1001ef80 f   coredll:COREDLL.dll
 0001:0001df90       CreateThread               1001ef90 f   coredll:COREDLL.dll
 0001:0001dfa0       CreateEventW               1001efa0 f   coredll:COREDLL.dll
 0001:0001dfb0       WaitForSingleObject        1001efb0 f   coredll:COREDLL.dll
 0001:0001dfc0       EventModify                1001efc0 f   coredll:COREDLL.dll
 0001:0001dfd0       CeSetThreadPriority        1001efd0 f   coredll:COREDLL.dll
 0001:0001dfe0       Random                     1001efe0 f   coredll:COREDLL.dll
 0001:0001dff0       MmMapIoSpace               1001eff0 f   ceddk:CEDDK.dll
 0001:0001e000       MmUnmapIoSpace             1001f000 f   ceddk:CEDDK.dll
 0001:0001e010       DllMain                    1001f010 f   corelib0:dllmain.obj
 0001:0001e04c       _DllMainCRTStartup         1001f04c f   corelib0:pegdmain.obj
 0001:0001e1f4       __security_init_cookie     1001f1f4 f   corelib0:seccinit.obj
 0001:0001e2bc       __GSHandlerCheck           1001f2bc f   corelib0:gshandler.obj
 0001:0001e304       __GSHandlerCheckCommon     1001f304 f   corelib0:gshandler.obj
 0001:0001e3ac       __security_check_cookie    1001f3ac f   corelib0:armsecgs.obj
 0001:0001e3c0       __gsfailure                1001f3c0 f   corelib0:armsecgs.obj
 0001:0001e404       exit                       1001f404 f   corelib0:cexit.obj
 0001:0001e584       _exit                      1001f584 f   corelib0:cexit.obj
 0001:0001e5a8       _cexit                     1001f5a8 f   corelib0:cexit.obj
 0001:0001e5c4       _c_exit                    1001f5c4 f   corelib0:cexit.obj
 0001:0001e5e0       GetCurrentProcess          1001f5e0 f i corelib0:cexit.obj
 0001:0001e5f8       _initterm                  1001f5f8 f   corelib0:crt0dat.obj
 0001:0001e64c       _cinit                     1001f64c f   corelib0:crt0dat.obj
 0001:0001e688       _onexit                    1001f688 f   corelib0:onexit.obj
 0001:0001e98c       atexit                     1001f98c f   corelib0:onexit.obj
 0001:0001e9e0       wcscpy                     1001f9e0 f   corelib1:COREDLL.dll
 0001:0001e9f0       ??2@YAPAXI@Z               1001f9f0 f   corelib1:COREDLL.dll
 0001:0001ea00       memset                     1001fa00 f   corelib1:COREDLL.dll
 0001:0001ea10       ??3@YAXPAX@Z               1001fa10 f   corelib1:COREDLL.dll
 0001:0001ea20       __C_specific_handler       1001fa20 f   corelib1:COREDLL.dll
 0001:0001ea30       __rt_udiv                  1001fa30 f   corelib1:COREDLL.dll
 0001:0001ea40       memcpy                     1001fa40 f   corelib1:COREDLL.dll
 0001:0001ea50       _purecall                  1001fa50 f   corelib1:COREDLL.dll
 0001:0001ea60       _XcptFilter                1001fa60 f   corelib1:COREDLL.dll
 0001:0001ea70       __security_gen_cookie2     1001fa70 f   corelib1:COREDLL.dll
 0001:0001ea80       __report_gsfailure         1001fa80 f   corelib1:COREDLL.dll
 0001:0001ea90       free                       1001fa90 f   corelib1:COREDLL.dll
 0001:0001eaa0       malloc                     1001faa0 f   corelib1:COREDLL.dll
 0001:0001eab0       realloc                    1001fab0 f   corelib1:COREDLL.dll
 0001:0001eac0       _msize                     1001fac0 f   corelib1:COREDLL.dll
 0001:0001ead0       DisableThreadLibraryCalls  1001fad0 f   coredll:COREDLL.dll
 0001:0001eae0       InterlockedExchange        1001fae0 f   coredll:COREDLL.dll
 0001:0001eaf0       TerminateProcess           1001faf0 f   coredll:COREDLL.dll
 0001:0001eb00       InterlockedCompareExchange 1001fb00 f   coredll:COREDLL.dll
 0001:0001eb70       __IMPORT_DESCRIPTOR_COREDLL 1001fb70     coredll:COREDLL.dll
 0001:0001eb84       __IMPORT_DESCRIPTOR_CEDDK  1001fb84     ceddk:CEDDK.dll
 0001:0001eb98       __NULL_IMPORT_DESCRIPTOR   1001fb98     coredll:COREDLL.dll
 0002:00000000       __imp_MmMapIoSpace         10020000     ceddk:CEDDK.dll
 0002:00000004       __imp_MmUnmapIoSpace       10020004     ceddk:CEDDK.dll
 0002:00000008       \177CEDDK_NULL_THUNK_DATA  10020008     ceddk:CEDDK.dll
 0002:0000000c       __imp_LoadLibraryW         1002000c     coredll:COREDLL.dll
 0002:00000010       __imp_InitializeCriticalSection 10020010     coredll:COREDLL.dll
 0002:00000014       __imp_LocalAlloc           10020014     coredll:COREDLL.dll
 0002:00000018       __imp_InterlockedIncrement 10020018     coredll:COREDLL.dll
 0002:0000001c       __imp_CeLogData            1002001c     coredll:COREDLL.dll
 0002:00000020       __imp_StringCchLengthW     10020020     coredll:COREDLL.dll
 0002:00000024       __imp_StringCchVPrintfW    10020024     coredll:COREDLL.dll
 0002:00000028       __imp_FreeLibrary          10020028     coredll:COREDLL.dll
 0002:0000002c       __imp_DeleteCriticalSection 1002002c     coredll:COREDLL.dll
 0002:00000030       __imp_LocalFree            10020030     coredll:COREDLL.dll
 0002:00000034       __imp_InterlockedDecrement 10020034     coredll:COREDLL.dll
 0002:00000038       __imp_LeaveCriticalSection 10020038     coredll:COREDLL.dll
 0002:0000003c       __imp_GetProcAddressW      1002003c     coredll:COREDLL.dll
 0002:00000040       __imp_EnterCriticalSection 10020040     coredll:COREDLL.dll
 0002:00000044       __imp_CeCloseCallerBuffer  10020044     coredll:COREDLL.dll
 0002:00000048       __imp_CeOpenCallerBuffer   10020048     coredll:COREDLL.dll
 0002:0000004c       __imp_GetLastError         1002004c     coredll:COREDLL.dll
 0002:00000050       __imp_CeGetThreadPriority  10020050     coredll:COREDLL.dll
 0002:00000054       __imp_CloseHandle          10020054     coredll:COREDLL.dll
 0002:00000058       __imp_CreateThread         10020058     coredll:COREDLL.dll
 0002:0000005c       __imp_CreateEventW         1002005c     coredll:COREDLL.dll
 0002:00000060       __imp_WaitForSingleObject  10020060     coredll:COREDLL.dll
 0002:00000064       __imp_EventModify          10020064     coredll:COREDLL.dll
 0002:00000068       __imp_CeSetThreadPriority  10020068     coredll:COREDLL.dll
 0002:0000006c       __imp_Random               1002006c     coredll:COREDLL.dll
 0002:00000070       __imp_RegisterDbgZones     10020070     coredll:COREDLL.dll
 0002:00000074       __imp_SetLastError         10020074     coredll:COREDLL.dll
 0002:00000078       __imp_NKDbgPrintfW         10020078     coredll:COREDLL.dll
 0002:0000007c       __imp_wcscpy               1002007c     corelib1:COREDLL.dll
 0002:00000080       __imp_??2@YAPAXI@Z         10020080     corelib1:COREDLL.dll
 0002:00000084       __imp_memset               10020084     corelib1:COREDLL.dll
 0002:00000088       __imp_??3@YAXPAX@Z         10020088     corelib1:COREDLL.dll
 0002:0000008c       __imp___C_specific_handler 1002008c     corelib1:COREDLL.dll
 0002:00000090       __imp___rt_udiv            10020090     corelib1:COREDLL.dll
 0002:00000094       __imp_memcpy               10020094     corelib1:COREDLL.dll
 0002:00000098       __imp__purecall            10020098     corelib1:COREDLL.dll
 0002:0000009c       __imp__XcptFilter          1002009c     corelib1:COREDLL.dll
 0002:000000a0       __imp___security_gen_cookie2 100200a0     corelib1:COREDLL.dll
 0002:000000a4       __imp___report_gsfailure   100200a4     corelib1:COREDLL.dll
 0002:000000a8       __imp_free                 100200a8     corelib1:COREDLL.dll
 0002:000000ac       __imp_malloc               100200ac     corelib1:COREDLL.dll
 0002:000000b0       __imp_realloc              100200b0     corelib1:COREDLL.dll
 0002:000000b4       __imp__msize               100200b4     corelib1:COREDLL.dll
 0002:000000b8       __imp_DisableThreadLibraryCalls 100200b8     coredll:COREDLL.dll
 0002:000000bc       __imp_InterlockedExchange  100200bc     coredll:COREDLL.dll
 0002:000000c0       __imp_TerminateProcess     100200c0     coredll:COREDLL.dll
 0002:000000c4       __imp_InterlockedCompareExchange 100200c4     coredll:COREDLL.dll
 0002:000000c8       \177COREDLL_NULL_THUNK_DATA 100200c8     coredll:COREDLL.dll
 0002:000000d0       dpCurSettings              100200d0     fal:falmain.obj
 0002:00000514       ?g_dwCompactionPrio256@@3KA 10020514     fal:falmain.obj
 0002:00000518       ?g_dwCompactionCritPrio256@@3KA 10020518     fal:falmain.obj
 0002:00000b08       __security_cookie          10020b08     corelib0:seccinit.obj
 0002:00000b0c       __security_cookie_complement 10020b0c     corelib0:seccinit.obj
 0002:00000b10       ?g_csMain@@3UCRITICAL_SECTION@@A 10020b10     fal:falmain.obj
 0002:00000b24       ?g_csFlashDevice@@3UCRITICAL_SECTION@@A 10020b24     fal:falmain.obj
 0002:00000b38       ?FMD@@3U_FMDInterface@@A   10020b38     fal:falmain.obj
 0002:00000b70       ?g_szProfile@@3PAGA        10020b70     fal:falmain.obj
 0002:00000bb0       ?g_FalObjects@@3PAPAVFal@@A 10020bb0     fal:falmain.obj
 0002:00000bbc       ?g_pFlashMediaInfo@@3PAU_FlashInfoEx@@A 10020bbc     fal:falmain.obj
 0002:00000bc0       ?g_hDeviceKey@@3PAUHKEY__@@A 10020bc0     fal:falmain.obj
 0002:00000bc4       ?g_hCoreDll@@3PAUHINSTANCE__@@A 10020bc4     fal:falmain.obj
 0002:00000bc8       ?g_dwAvailableSectors@@3KA 10020bc8     fal:falmain.obj
 0002:00000bcc       ?g_CurrentPowerState@@3W4_CEDEVICE_POWER_STATE@@A 10020bcc     fal:falmain.obj
 0002:00000c50       stDeviceInfo               10020c50     nandflash_lib:fmd.obj
 0002:00000c58       ?g_bNeedExtAddr@@3HA       10020c58     nandflash_lib:fmd.obj
 0002:00000c5c       ?g_pNFConReg@@3PCUS3C6410_NAND_REG@@C 10020c5c     nandflash_lib:fmd.obj
 0002:00000c60       ?g_pSysConReg@@3PCUS3C6410_SYSCON_REG@@C 10020c60     nandflash_lib:fmd.obj
 0002:00000c64       _exitflag                  10020c64     corelib0:cexit.obj
 0002:00000c68       __onexitend                10020c68     <common>
 0002:00000c6c       __onexitbegin              10020c6c     <common>
 0002:00000c70       g_pcsExit                  10020c70     <common>
 0002:00000c74       _pRawDllMain               10020c74     <common>

 entry point at        0001:0001e04c

 Static symbols

 0001:000096bc       CeLogMsg                   1000a6bc f   fal:falmain.obj
 0001:0000d760       CeLogMsg                   1000e760 f   fal:fal.obj
 0001:00012154       CeLogMsg                   10013154 f   fal:log2physmap.obj
 0001:000135b8       CeLogMsg                   100145b8 f   fal:sectormgr.obj
 0001:00015b40       CeLogMsg                   10016b40 f   fal:compactor.obj
 0001:00018468       ?ReadFlashID@@YAKXZ        10019468 f   nandflash_lib:fmd.obj
 0001:0001e0a0       _DllMainCRTStartupHelper   1001f0a0 f   corelib0:pegdmain.obj
 0001:0001e428       doexit                     1001f428 f   corelib0:cexit.obj
 0001:0001e6e4       lockexit                   1001f6e4 f   corelib0:onexit.obj
 0001:0001e780       unlockexit                 1001f780 f   corelib0:onexit.obj
 0001:0001e7ac       _onexit_nolock             1001f7ac f   corelib0:onexit.obj
