 s3c6410_ohci2

 Timestamp is 531ec5fa (Tue Mar 11 16:14:50 2014)

 Preferred load address is 10000000

 Start         Length     Name                   Class
 0001:00000000 00000004H .CRT$XCA                CODE
 0001:00000004 00000004H .CRT$XCZ                CODE
 0001:00000008 00000004H .CRT$XIA                CODE
 0001:0000000c 00000004H .CRT$XIZ                CODE
 0001:00000010 00000004H .CRT$XPA                CODE
 0001:00000014 00000004H .CRT$XPZ                CODE
 0001:00000018 00000004H .CRT$XTA                CODE
 0001:0000001c 00000004H .CRT$XTZ                CODE
 0001:00000020 0000d42eH .rdata                  CODE
 0001:0000d450 0000002aH .rdata$debug            CODE
 0001:0000d47c 0002ad38H .text                   CODE
 0001:000381b4 00000168H .xdata                  CODE
 0001:0003831c 00000028H .idata$2                CODE
 0001:00038344 00000014H .idata$3                CODE
 0001:00038358 00000134H .idata$4                CODE
 0001:0003848c 00000016H .idata$6                CODE
 0001:000384b0 00000100H .edata                  CODE
 0002:00000000 00000134H .idata$5                DATA
 0002:00000138 00000718H .data                   DATA
 0002:00000850 00000034H .bss                    DATA
 0003:00000000 00000dc0H .pdata                  DATA

  Address         Publics by Value              Rva+Base       Lib:Object

 0000:00000000       ___safe_se_handler_count   00000000     <absolute>
 0000:00000000       ___safe_se_handler_table   00000000     <absolute>
 0001:00000000       __xc_a                     10001000     corelib0:crt0init.obj
 0001:00000004       __xc_z                     10001004     corelib0:crt0init.obj
 0001:00000008       __xi_a                     10001008     corelib0:crt0init.obj
 0001:0000000c       __xi_z                     1000100c     corelib0:crt0init.obj
 0001:00000010       __xp_a                     10001010     corelib0:crt0init.obj
 0001:00000014       __xp_z                     10001014     corelib0:crt0init.obj
 0001:00000018       __xt_a                     10001018     corelib0:crt0init.obj
 0001:0000001c       __xt_z                     1000101c     corelib0:crt0init.obj
 0001:00000048       ??_C@_1EO@EFLCGDMD@?$AAO?$AAH?$AAC?$AAD?$AA?3?$AA?5?$AAi?$AAo?$AAP?$AAo?$AAr?$AAt?$AAB?$AAa?$AAs?$AAe?$AA?5?$AA0?$AAx?$AA?$CF?$AAX?$AA?0?$AA?5?$AAp?$AAo?$AAr?$AAt?$AAB?$AAa?$AAs?$AAe?$AA?5@ 10001048     s3c6410_ohci.obj
 0001:00000098       ??_C@_1FE@IAAJDEEC@?$AAO?$AAH?$AAC?$AAD?$AA?3?$AA?5?$AAi?$AAo?$AAP?$AAh?$AAy?$AAs?$AAi?$AAc?$AAa?$AAl?$AAB?$AAa?$AAs?$AAe?$AA?5?$AA0?$AAx?$AA?$CF?$AAX?$AA?0?$AA?5?$AAI?$AAo?$AAS?$AAp?$AAa@ 10001098     s3c6410_ohci.obj
 0001:000000f0       ??_C@_1EK@MBOLAMJD@?$AAO?$AAH?$AAC?$AAD?$AA?3?$AA?5?$AAF?$AAa?$AAi?$AAl?$AAe?$AAd?$AA?5?$AAT?$AAr?$AAa?$AAn?$AAs?$AAB?$AAu?$AAs?$AAA?$AAd?$AAd?$AAr?$AAT?$AAo?$AAV?$AAi?$AAr?$AAt?$AAu@ 100010f0     s3c6410_ohci.obj
 0001:00000140       ??_C@_1FA@CAEELLA@?$AA?$FL?$AAU?$AAS?$AAB?$AAH?$AA?3?$AAE?$AAR?$AAR?$AA?$FN?$AA?5?$AA?9?$AA?9?$AAI?$AAn?$AAi?$AAt?$AAi?$AAa?$AAl?$AAi?$AAz?$AAe?$AAO?$AAH?$AAC?$AAI?$AA?$CI?$AA?$CJ?$AA?5?$AA?3?$AA?5@ 10001140     s3c6410_ohci.obj
 0001:00000190       ??_C@_1GK@GCBEIODK@?$AA?$FL?$AAU?$AAS?$AAB?$AAH?$AA?3?$AAI?$AAN?$AAF?$AA?$FN?$AA?5?$AAI?$AAn?$AAi?$AAt?$AAi?$AAa?$AAl?$AAi?$AAz?$AAe?$AAO?$AAH?$AAC?$AAI?$AA?$CI?$AA?$CJ?$AA?5?$AA?3?$AA?5?$AAU?$AAS@ 10001190     s3c6410_ohci.obj
 0001:000001fc       ??_C@_1BM@KKKMKIHE@?$AAH?$AAc?$AAd?$AAC?$AAa?$AAp?$AAa?$AAb?$AAi?$AAl?$AAi?$AAt?$AAy?$AA?$AA@ 100011fc     s3c6410_ohci.obj
 0001:00000218       ??_C@_1FA@DPHEKBML@?$AAO?$AAH?$AAC?$AAD?$AA?3?$AA?5?$AAK?$AAe?$AAr?$AAn?$AAe?$AAl?$AAL?$AAi?$AAb?$AAI?$AAo?$AAC?$AAo?$AAn?$AAt?$AAr?$AAo?$AAl?$AA?5?$AAc?$AAa?$AAl?$AAl?$AA?5?$AAf?$AAa@ 10001218     s3c6410_ohci.obj
 0001:00000268       ??_C@_1EI@LOJCLMFL@?$AAO?$AAH?$AAC?$AAD?$AA?3?$AA?5?$AAF?$AAa?$AAi?$AAl?$AAe?$AAd?$AA?5?$AAT?$AAr?$AAa?$AAn?$AAs?$AAB?$AAu?$AAs?$AAA?$AAd?$AAd?$AAr?$AAT?$AAo?$AAS?$AAt?$AAa?$AAt?$AAi@ 10001268     s3c6410_ohci.obj
 0001:000002b0       ??_C@_1II@CDOFHEL@?$AAO?$AAH?$AAC?$AAD?$AA?3?$AA?5?$AAI?$AAn?$AAs?$AAt?$AAa?$AAl?$AAl?$AAe?$AAd?$AA?5?$AAI?$AAS?$AAR?$AA?5?$AAh?$AAa?$AAn?$AAd?$AAl?$AAe?$AAr?$AA?0?$AA?5?$AAD?$AAl?$AAl@ 100012b0     s3c6410_ohci.obj
 0001:00000338       ??_C@_1EK@FIHEAHPG@?$AAO?$AAH?$AAC?$AAD?$AA?3?$AA?5?$AAC?$AAo?$AAu?$AAl?$AAd?$AAn?$AA?8?$AAt?$AA?5?$AAi?$AAn?$AAs?$AAt?$AAa?$AAl?$AAl?$AA?5?$AAI?$AAS?$AAR?$AA?5?$AAh?$AAa?$AAn?$AAd?$AAl@ 10001338     s3c6410_ohci.obj
 0001:00000388       ??_C@_1BAK@KPHFPFKN@?$AAO?$AAH?$AAC?$AAD?$AA?3?$AA?5?$AAR?$AAe?$AAa?$AAd?$AA?5?$AAc?$AAo?$AAn?$AAf?$AAi?$AAg?$AA?5?$AAf?$AAr?$AAo?$AAm?$AA?5?$AAr?$AAe?$AAg?$AAi?$AAs?$AAt?$AAr?$AAy?$AA?3@ 10001388     s3c6410_ohci.obj
 0001:00000494       ??_C@_15LIBIHNCL@?$AAN?$AAO?$AA?$AA@ 10001494     s3c6410_ohci.obj
 0001:0000049c       ??_C@_17FGJJPDOI@?$AAY?$AAE?$AAS?$AA?$AA@ 1000149c     s3c6410_ohci.obj
 0001:000004a8       ??_C@_1IM@DHHKPKKF@?$AAI?$AAn?$AAi?$AAt?$AAi?$AAa?$AAl?$AAi?$AAz?$AAe?$AAO?$AAH?$AAC?$AAI?$AA?3?$AAD?$AAD?$AAK?$AAR?$AAe?$AAg?$AA_?$AAG?$AAe?$AAt?$AAW?$AAi?$AAn?$AAd?$AAo?$AAw?$AAI@ 100014a8     s3c6410_ohci.obj
 0001:00000538       ??_C@_1HG@LAGNOEAE@?$AAI?$AAn?$AAi?$AAt?$AAi?$AAa?$AAl?$AAi?$AAz?$AAe?$AAO?$AAH?$AAC?$AAI?$AA?3?$AAG?$AAe?$AAt?$AAR?$AAe?$AAg?$AAi?$AAs?$AAt?$AAr?$AAy?$AAC?$AAo?$AAn?$AAf?$AAi?$AAg@ 10001538     s3c6410_ohci.obj
 0001:000005b0       ??_C@_1GK@KLPDGBCC@?$AA?$FL?$AAU?$AAS?$AAB?$AAH?$AA?3?$AAE?$AAR?$AAR?$AA?$FN?$AA?5?$AAI?$AAn?$AAi?$AAt?$AAi?$AAa?$AAl?$AAi?$AAz?$AAe?$AAO?$AAH?$AAC?$AAI?$AA?$CI?$AA?$CJ?$AA?5?$AA?3?$AA?5?$AAM?$AAm@ 100015b0     s3c6410_ohci.obj
 0001:0000061c       ??_C@_1CC@NPEFILDH@?$AAP?$AAh?$AAy?$AAs?$AAi?$AAc?$AAa?$AAl?$AAP?$AAa?$AAg?$AAe?$AAS?$AAi?$AAz?$AAe?$AA?$AA@ 1000161c     s3c6410_ohci.obj
 0001:00000640       ??_C@_1GK@JFHJGEKH@?$AA?$CB?$AAU?$AAH?$AAC?$AAD?$AA?3?$AAG?$AAe?$AAt?$AAR?$AAe?$AAg?$AAi?$AAs?$AAt?$AAr?$AAy?$AAC?$AAo?$AAn?$AAf?$AAi?$AAg?$AA?5?$AAR?$AAe?$AAg?$AAO?$AAp?$AAe?$AAn?$AAK@ 10001640     s3c6410_ohci.obj
 0001:000006ac       ??_C@_1DK@JPBDFEOB@?$AAD?$AAE?$AAV?$AAI?$AAC?$AAE?$AA_?$AAC?$AAO?$AAN?$AAF?$AAI?$AAG?$AA_?$AAS?$AAT?$AAA?$AAT?$AAU?$AAS?$AA_?$AAI?$AAN?$AAV?$AAA?$AAL?$AAI?$AAD?$AA?$AA@ 100016ac     hcdlib:hcddrv.obj
 0001:000006e8       ??_C@_1DE@IMCKALLA@?$AAD?$AAE?$AAV?$AAI?$AAC?$AAE?$AA_?$AAC?$AAO?$AAN?$AAF?$AAI?$AAG?$AA_?$AAS?$AAT?$AAA?$AAT?$AAU?$AAS?$AA_?$AAD?$AAO?$AAN?$AAE?$AA?$AA@ 100016e8     hcdlib:hcddrv.obj
 0001:0000071c       ??_C@_1DI@CEGNOBAM@?$AAD?$AAE?$AAV?$AAI?$AAC?$AAE?$AA_?$AAC?$AAO?$AAN?$AAF?$AAI?$AAG?$AA_?$AAS?$AAT?$AAA?$AAT?$AAU?$AAS?$AA_?$AAF?$AAA?$AAI?$AAL?$AAE?$AAD?$AA?$AA@ 1000171c     hcdlib:hcddrv.obj
 0001:00000758       ??_C@_1HO@PGHDEMEK@?$AAD?$AAE?$AAV?$AAI?$AAC?$AAE?$AA_?$AAC?$AAO?$AAN?$AAF?$AAI?$AAG?$AA_?$AAS?$AAT?$AAA?$AAT?$AAU?$AAS?$AA_?$AAS?$AAI?$AAG?$AAN?$AAA?$AAL?$AA_?$AAN?$AAE?$AAW?$AA_@ 10001758     hcdlib:hcddrv.obj
 0001:000007d8       ??_C@_1II@FBBOBKGN@?$AAD?$AAE?$AAV?$AAI?$AAC?$AAE?$AA_?$AAC?$AAO?$AAN?$AAF?$AAI?$AAG?$AA_?$AAS?$AAT?$AAA?$AAT?$AAU?$AAS?$AA_?$AAI?$AAN?$AAS?$AAE?$AAR?$AAT?$AA_?$AAN?$AAE?$AAW?$AA_@ 100017d8     hcdlib:hcddrv.obj
 0001:00000860       ??_C@_1FC@LCLFDJDO@?$AAD?$AAE?$AAV?$AAI?$AAC?$AAE?$AA_?$AAC?$AAO?$AAN?$AAF?$AAI?$AAG?$AA_?$AAS?$AAT?$AAA?$AAT?$AAU?$AAS?$AA_?$AAC?$AAR?$AAE?$AAA?$AAT?$AAE?$AA_?$AAN?$AAE?$AAW?$AA_@ 10001860     hcdlib:hcddrv.obj
 0001:000008b8       ??_C@_1EI@COKEBMOE@?$AAD?$AAE?$AAV?$AAI?$AAC?$AAE?$AA_?$AAC?$AAO?$AAN?$AAF?$AAI?$AAG?$AA_?$AAS?$AAT?$AAA?$AAT?$AAU?$AAS?$AA_?$AAC?$AAR?$AAE?$AAA?$AAT?$AAE?$AA_?$AAN?$AAE?$AAW?$AA_@ 100018b8     hcdlib:hcddrv.obj
 0001:00000900       ??_C@_1GG@HPGGGHKI@?$AAD?$AAE?$AAV?$AAI?$AAC?$AAE?$AA_?$AAC?$AAO?$AAN?$AAF?$AAI?$AAG?$AA_?$AAS?$AAT?$AAA?$AAT?$AAU?$AAS?$AA_?$AAS?$AAC?$AAH?$AAE?$AAD?$AAU?$AAL?$AAI?$AAN?$AAG?$AA_@ 10001900     hcdlib:hcddrv.obj
 0001:00000968       ??_C@_1HG@KPBCOGEF@?$AAD?$AAE?$AAV?$AAI?$AAC?$AAE?$AA_?$AAC?$AAO?$AAN?$AAF?$AAI?$AAG?$AA_?$AAS?$AAT?$AAA?$AAT?$AAU?$AAS?$AA_?$AAS?$AAC?$AAH?$AAE?$AAD?$AAU?$AAL?$AAI?$AAN?$AAG?$AA_@ 10001968     hcdlib:hcddrv.obj
 0001:000009e0       ??_C@_1FG@CFFAAPDL@?$AAD?$AAE?$AAV?$AAI?$AAC?$AAE?$AA_?$AAC?$AAO?$AAN?$AAF?$AAI?$AAG?$AA_?$AAS?$AAT?$AAA?$AAT?$AAU?$AAS?$AA_?$AAS?$AAC?$AAH?$AAE?$AAD?$AAU?$AAL?$AAI?$AAN?$AAG?$AA_@ 100019e0     hcdlib:hcddrv.obj
 0001:00000a38       ??_C@_1GA@NDHJOKMM@?$AAD?$AAE?$AAV?$AAI?$AAC?$AAE?$AA_?$AAC?$AAO?$AAN?$AAF?$AAI?$AAG?$AA_?$AAS?$AAT?$AAA?$AAT?$AAU?$AAS?$AA_?$AAD?$AAE?$AAT?$AAE?$AAR?$AAM?$AAI?$AAN?$AAE?$AA_?$AAC@ 10001a38     hcdlib:hcddrv.obj
 0001:00000a98       ??_C@_1GM@JADKDKDC@?$AAD?$AAE?$AAV?$AAI?$AAC?$AAE?$AA_?$AAC?$AAO?$AAN?$AAF?$AAI?$AAG?$AA_?$AAS?$AAT?$AAA?$AAT?$AAU?$AAS?$AA_?$AAS?$AAC?$AAH?$AAE?$AAD?$AAU?$AAL?$AAI?$AAN?$AAG?$AA_@ 10001a98     hcdlib:hcddrv.obj
 0001:00000b08       ??_C@_1HM@NPLCKJLH@?$AAD?$AAE?$AAV?$AAI?$AAC?$AAE?$AA_?$AAC?$AAO?$AAN?$AAF?$AAI?$AAG?$AA_?$AAS?$AAT?$AAA?$AAT?$AAU?$AAS?$AA_?$AAS?$AAC?$AAH?$AAE?$AAD?$AAU?$AAL?$AAI?$AAN?$AAG?$AA_@ 10001b08     hcdlib:hcddrv.obj
 0001:00000b88       ??_C@_1HE@MEMGEMJJ@?$AAD?$AAE?$AAV?$AAI?$AAC?$AAE?$AA_?$AAC?$AAO?$AAN?$AAF?$AAI?$AAG?$AA_?$AAS?$AAT?$AAA?$AAT?$AAU?$AAS?$AA_?$AAS?$AAE?$AAT?$AAU?$AAP?$AA_?$AAC?$AAO?$AAN?$AAF?$AAI@ 10001b88     hcdlib:hcddrv.obj
 0001:00000c00       ??_C@_1GM@BCHKIAPP@?$AAD?$AAE?$AAV?$AAI?$AAC?$AAE?$AA_?$AAC?$AAO?$AAN?$AAF?$AAI?$AAG?$AA_?$AAS?$AAT?$AAA?$AAT?$AAU?$AAS?$AA_?$AAS?$AAC?$AAH?$AAE?$AAD?$AAU?$AAL?$AAI?$AAN?$AAG?$AA_@ 10001c00     hcdlib:hcddrv.obj
 0001:00000c70       ??_C@_1HM@FNPCBDHK@?$AAD?$AAE?$AAV?$AAI?$AAC?$AAE?$AA_?$AAC?$AAO?$AAN?$AAF?$AAI?$AAG?$AA_?$AAS?$AAT?$AAA?$AAT?$AAU?$AAS?$AA_?$AAS?$AAC?$AAH?$AAE?$AAD?$AAU?$AAL?$AAI?$AAN?$AAG?$AA_@ 10001c70     hcdlib:hcddrv.obj
 0001:00000cf0       ??_C@_1EI@BBOOKHNN@?$AAD?$AAE?$AAV?$AAI?$AAC?$AAE?$AA_?$AAC?$AAO?$AAN?$AAF?$AAI?$AAG?$AA_?$AAS?$AAT?$AAA?$AAT?$AAU?$AAS?$AA_?$AAL?$AAE?$AAA?$AAV?$AAE?$AA_?$AAA?$AAD?$AAD?$AAR?$AAE@ 10001cf0     hcdlib:hcddrv.obj
 0001:00000d38       ??_C@_1FI@LGLHPFAK@?$AAD?$AAE?$AAV?$AAI?$AAC?$AAE?$AA_?$AAC?$AAO?$AAN?$AAF?$AAI?$AAG?$AA_?$AAS?$AAT?$AAA?$AAT?$AAU?$AAS?$AA_?$AAS?$AAC?$AAH?$AAE?$AAD?$AAU?$AAL?$AAI?$AAN?$AAG?$AA_@ 10001d38     hcdlib:hcddrv.obj
 0001:00000d90       ??_C@_1HG@BLNLBKIO@?$AAD?$AAE?$AAV?$AAI?$AAC?$AAE?$AA_?$AAC?$AAO?$AAN?$AAF?$AAI?$AAG?$AA_?$AAS?$AAT?$AAA?$AAT?$AAU?$AAS?$AA_?$AAS?$AAC?$AAH?$AAE?$AAD?$AAU?$AAL?$AAI?$AAN?$AAG?$AA_@ 10001d90     hcdlib:hcddrv.obj
 0001:00000e08       ??_C@_1FG@NMCKCJLL@?$AAD?$AAE?$AAV?$AAI?$AAC?$AAE?$AA_?$AAC?$AAO?$AAN?$AAF?$AAI?$AAG?$AA_?$AAS?$AAT?$AAA?$AAT?$AAU?$AAS?$AA_?$AAR?$AAE?$AAS?$AAE?$AAT?$AA_?$AAA?$AAN?$AAD?$AA_?$AAE@ 10001e08     hcdlib:hcddrv.obj
 0001:00000e60       ??_C@_1EI@KNOIBOPH@?$AAD?$AAE?$AAV?$AAI?$AAC?$AAE?$AA_?$AAC?$AAO?$AAN?$AAF?$AAI?$AAG?$AA_?$AAS?$AAT?$AAA?$AAT?$AAU?$AAS?$AA_?$AAU?$AAS?$AAI?$AAN?$AAG?$AA_?$AAA?$AAD?$AAD?$AAR?$AAE@ 10001e60     hcdlib:hcddrv.obj
 0001:00000ea8       ??_C@_1FI@COMJHLEF@?$AAD?$AAE?$AAV?$AAI?$AAC?$AAE?$AA_?$AAC?$AAO?$AAN?$AAF?$AAI?$AAG?$AA_?$AAS?$AAT?$AAA?$AAT?$AAU?$AAS?$AA_?$AAO?$AAP?$AAE?$AAN?$AAI?$AAN?$AAG?$AA_?$AAE?$AAN?$AAD@ 10001ea8     hcdlib:hcddrv.obj
 0001:00000f00       ??_C@_1DA@JAPEOLC@?$AAH?$AAC?$AAD?$AA?5?$AAd?$AAr?$AAi?$AAv?$AAe?$AAr?$AA?5?$AAD?$AAL?$AAL?$AA?5?$AAa?$AAt?$AAt?$AAa?$AAc?$AAh?$AA?$AN?$AA?6?$AA?$AA@ 10001f00     hcdlib:hcddrv.obj
 0001:00000f30       ??_C@_1FK@FNONLNGN@?$AA?$CF?$AAs?$AA?3?$AA?5?$AAD?$AAE?$AAB?$AAU?$AAG?$AAC?$AAH?$AAK?$AA?5?$AAf?$AAa?$AAi?$AAl?$AAe?$AAd?$AA?5?$AAi?$AAn?$AA?5?$AAf?$AAi?$AAl?$AAe?$AA?5?$AA?$CF?$AAs?$AA?5?$AAa@ 10001f30     hcdlib:hcddrv.obj
 0001:00000f8c       ??_C@_1BA@LEPJIIOK@?$AAU?$AAn?$AAk?$AAn?$AAo?$AAw?$AAn?$AA?$AA@ 10001f8c     hcdlib:hcddrv.obj
 0001:00000fa0       ??_C@_1IC@DKENFALH@?$AAd?$AA?3?$AA?2?$AAy?$AAz?$AAk?$AAi?$AAq?$AAf?$AAe?$AA?2?$AAp?$AAu?$AAb?$AAl?$AAi?$AAc?$AA?2?$AAC?$AAO?$AAM?$AAM?$AAO?$AAN?$AA?2?$AAo?$AAa?$AAk?$AA?2?$AAd?$AAr?$AAi@ 10001fa0     hcdlib:hcddrv.obj
 0001:00001028       ??_C@_1GE@DHLLLPOC@?$AAH?$AAC?$AAD?$AA?$CB?$AAH?$AAC?$AAD?$AA_?$AAI?$AAn?$AAi?$AAt?$AA?5?$AAR?$AAe?$AAg?$AAQ?$AAu?$AAe?$AAr?$AAy?$AAV?$AAa?$AAl?$AAu?$AAe?$AAE?$AAx?$AA?$CI?$AA?$CF?$AAs?$AA?2@ 10002028     hcdlib:hcddrv.obj
 0001:0000108c       ??_C@_17KACEIPNC@?$AAK?$AAe?$AAy?$AA?$AA@ 1000208c     hcdlib:hcddrv.obj
 0001:00001098       ??_C@_1FK@BNJFLLEF@?$AAH?$AAC?$AAD?$AA?$CB?$AAH?$AAC?$AAD?$AA_?$AAI?$AAn?$AAi?$AAt?$AA?5?$AAR?$AAe?$AAg?$AAO?$AAp?$AAe?$AAn?$AAK?$AAe?$AAy?$AAE?$AAx?$AA?$CI?$AA?$CF?$AAs?$AA?$CJ?$AA?5?$AAr?$AAe@ 10002098     hcdlib:hcddrv.obj
 0001:000010f4       ??_C@_1BO@MHNNBHCL@?$AAH?$AAC?$AAD?$AA?$CB?$AAH?$AAC?$AAD?$AA_?$AAI?$AAn?$AAi?$AAt?$AA?$AN?$AA?6?$AA?$AA@ 100020f4     hcdlib:hcddrv.obj
 0001:00001114       ??_C@_1BI@BHLBGEOK@?$AAP?$AAr?$AAi?$AAo?$AAr?$AAi?$AAt?$AAy?$AA2?$AA5?$AA6?$AA?$AA@ 10002114     hcdlib:hcddrv.obj
 0001:0000112c       ??_C@_1CE@NJOCNLCM@?$AAH?$AAC?$AAD?$AA?3?$AA?5?$AAH?$AAC?$AAD?$AA_?$AAD?$AAe?$AAi?$AAn?$AAi?$AAt?$AA?$AN?$AA?6?$AA?$AA@ 1000212c     hcdlib:hcddrv.obj
 0001:00001150       ??_7CHcd@@6B@              10002150     hcdlib:hcd.obj
 0001:000011a0       ??_C@_1GG@IMKOLEF@?$AA?9?$AAC?$AAH?$AAc?$AAd?$AA?3?$AA?3?$AAO?$AAp?$AAe?$AAn?$AAP?$AAi?$AAp?$AAe?$AA?5?$AAf?$AAo?$AAr?$AA?5?$AAa?$AAd?$AAd?$AAr?$AAe?$AAs?$AAs?$AA?5?$AA?$CF?$AAd?$AA?0?$AA?5@ 100021a0     hcdlib:hcd.obj
 0001:00001208       ??_C@_1EO@POAKMOKK@?$AA?$CL?$AAC?$AAH?$AAc?$AAd?$AA?3?$AA?3?$AAO?$AAp?$AAe?$AAn?$AAP?$AAi?$AAp?$AAe?$AA?5?$AAf?$AAo?$AAr?$AA?5?$AAd?$AAe?$AAv?$AAi?$AAc?$AAe?$AA?5?$AAo?$AAn?$AA?5?$AAa?$AAd@ 10002208     hcdlib:hcd.obj
 0001:00001258       ??_C@_1II@BLHGDNFM@?$AA?9?$AAC?$AAH?$AAc?$AAd?$AA?3?$AA?3?$AAC?$AAl?$AAo?$AAs?$AAe?$AAP?$AAi?$AAp?$AAe?$AA?5?$AA?9?$AA?5?$AAa?$AAd?$AAd?$AAr?$AAe?$AAs?$AAs?$AA?5?$AA?$DN?$AA?5?$AA?$CF?$AAd?$AA?0@ 10002258     hcdlib:hcd.obj
 0001:000012e0       ??_C@_1GC@NJMEDGCO@?$AA?$CL?$AAC?$AAH?$AAc?$AAd?$AA?3?$AA?3?$AAC?$AAl?$AAo?$AAs?$AAe?$AAP?$AAi?$AAp?$AAe?$AA?5?$AA?9?$AA?5?$AAa?$AAd?$AAd?$AAr?$AAe?$AAs?$AAs?$AA?5?$AA?$DN?$AA?5?$AA?$CF?$AAd?$AA?0@ 100022e0     hcdlib:hcd.obj
 0001:00001348       ??_C@_1FC@IHEAIAGM@?$AA?9?$AAC?$AAH?$AAc?$AAd?$AA?3?$AA?3?$AAI?$AAs?$AAs?$AAu?$AAe?$AAT?$AAr?$AAa?$AAn?$AAs?$AAf?$AAe?$AAr?$AA?5?$AA?9?$AA?5?$AAr?$AAe?$AAt?$AAu?$AAr?$AAi?$AAn?$AAg?$AA?5@ 10002348     hcdlib:hcd.obj
 0001:000013a0       ??_C@_1PM@ELCLLPLD@?$AA?$CL?$AAC?$AAH?$AAc?$AAd?$AA?3?$AA?3?$AAI?$AAs?$AAs?$AAu?$AAe?$AAT?$AAr?$AAa?$AAn?$AAs?$AAf?$AAe?$AAr?$AA?5?$AA?9?$AA?5?$AAa?$AAd?$AAd?$AAr?$AAe?$AAs?$AAs?$AA?5?$AA?$DN@ 100023a0     hcdlib:hcd.obj
 0001:000014a0       ??_C@_1JA@FCGAMPLO@?$AA?9?$AAC?$AAH?$AAc?$AAd?$AA?3?$AA?3?$AAA?$AAb?$AAo?$AAr?$AAt?$AAT?$AAr?$AAa?$AAn?$AAs?$AAf?$AAe?$AAr?$AA?5?$AA?9?$AA?5?$AAa?$AAd?$AAd?$AAr?$AAe?$AAs?$AAs?$AA?5?$AA?$DN@ 100024a0     hcdlib:hcd.obj
 0001:00001530       ??_C@_1JC@PLEKCCMG@?$AA?$CL?$AAC?$AAH?$AAc?$AAd?$AA?3?$AA?3?$AAA?$AAb?$AAo?$AAr?$AAt?$AAT?$AAr?$AAa?$AAn?$AAs?$AAf?$AAe?$AAr?$AA?5?$AA?9?$AA?5?$AAa?$AAd?$AAd?$AAr?$AAe?$AAs?$AAs?$AA?5?$AA?$DN@ 10002530     hcdlib:hcd.obj
 0001:000015c8       ??_C@_1KE@LBCAOHB@?$AA?9?$AAC?$AAH?$AAc?$AAd?$AA?3?$AA?3?$AAI?$AAs?$AAP?$AAi?$AAp?$AAe?$AAH?$AAa?$AAl?$AAt?$AAe?$AAd?$AA?5?$AA?9?$AA?5?$AAa?$AAd?$AAd?$AAr?$AAe?$AAs?$AAs?$AA?5?$AA?$DN?$AA?5@ 100025c8     hcdlib:hcd.obj
 0001:00001670       ??_C@_1GI@FPOGNJBG@?$AA?$CL?$AAC?$AAH?$AAc?$AAd?$AA?3?$AA?3?$AAI?$AAs?$AAP?$AAi?$AAp?$AAe?$AAH?$AAa?$AAl?$AAt?$AAe?$AAd?$AA?5?$AA?9?$AA?5?$AAa?$AAd?$AAd?$AAr?$AAe?$AAs?$AAs?$AA?5?$AA?$DN?$AA?5@ 10002670     hcdlib:hcd.obj
 0001:000016d8       ??_C@_1II@FAPMMDIC@?$AA?9?$AAC?$AAH?$AAc?$AAd?$AA?3?$AA?3?$AAR?$AAe?$AAs?$AAe?$AAt?$AAP?$AAi?$AAp?$AAe?$AA?5?$AA?9?$AA?5?$AAa?$AAd?$AAd?$AAr?$AAe?$AAs?$AAs?$AA?5?$AA?$DN?$AA?5?$AA?$CF?$AAd?$AA?0@ 100026d8     hcdlib:hcd.obj
 0001:00001760       ??_C@_1GC@CCBOPNIE@?$AA?$CL?$AAC?$AAH?$AAc?$AAd?$AA?3?$AA?3?$AAR?$AAe?$AAs?$AAe?$AAt?$AAP?$AAi?$AAp?$AAe?$AA?5?$AA?9?$AA?5?$AAa?$AAd?$AAd?$AAr?$AAe?$AAs?$AAs?$AA?5?$AA?$DN?$AA?5?$AA?$CF?$AAd?$AA?0@ 10002760     hcdlib:hcd.obj
 0001:000017c8       ??_C@_1HA@DBAOPMNC@?$AA?9?$AAC?$AAH?$AAc?$AAd?$AA?3?$AA?3?$AAD?$AAi?$AAs?$AAa?$AAb?$AAl?$AAe?$AAD?$AAe?$AAv?$AAi?$AAc?$AAe?$AA?5?$AA?9?$AA?5?$AAa?$AAd?$AAd?$AAr?$AAe?$AAs?$AAs?$AA?5?$AA?$DN@ 100027c8     hcdlib:hcd.obj
 0001:00001838       ??_C@_1GC@CKNGPFE@?$AA?$CL?$AAC?$AAH?$AAc?$AAd?$AA?3?$AA?3?$AAD?$AAi?$AAs?$AAa?$AAb?$AAl?$AAe?$AAD?$AAe?$AAv?$AAi?$AAc?$AAe?$AA?5?$AA?9?$AA?5?$AAa?$AAd?$AAd?$AAr?$AAe?$AAs?$AAs?$AA?5?$AA?$DN@ 10002838     hcdlib:hcd.obj
 0001:000018a0       ??_C@_1IM@FNOGFBBE@?$AA?9?$AAC?$AAH?$AAc?$AAd?$AA?3?$AA?3?$AAS?$AAu?$AAs?$AAp?$AAe?$AAn?$AAd?$AAR?$AAe?$AAs?$AAu?$AAm?$AAe?$AA?5?$AA?9?$AA?5?$AAa?$AAd?$AAd?$AAr?$AAe?$AAs?$AAs?$AA?5?$AA?$DN@ 100028a0     hcdlib:hcd.obj
 0001:00001930       ??_C@_1GK@JHFDANOI@?$AA?$CL?$AAC?$AAH?$AAc?$AAd?$AA?3?$AA?3?$AAS?$AAu?$AAs?$AAp?$AAe?$AAn?$AAd?$AAR?$AAe?$AAs?$AAu?$AAm?$AAe?$AA?5?$AA?9?$AA?5?$AAa?$AAd?$AAd?$AAr?$AAe?$AAs?$AAs?$AA?5?$AA?$DN@ 10002930     hcdlib:hcd.obj
 0001:000019a0       ??_C@_1KA@FJCCGHGB@?$AAC?$AAP?$AAh?$AAy?$AAs?$AAM?$AAe?$AAm?$AA?5?$AA?5?$AAN?$AAo?$AAr?$AAm?$AAa?$AAl?$AA?5?$AAA?$AAl?$AAl?$AAo?$AAc?$AA?5?$AAR?$AAe?$AAg?$AAi?$AAo?$AAn?$AA?5?$AAP?$AAh@ 100029a0     hcdlib:cphysmem.obj
 0001:00001a40       ??_C@_1KA@PJOEMMCM@?$AAC?$AAP?$AAh?$AAy?$AAs?$AAM?$AAe?$AAm?$AA?5?$AAH?$AAi?$AAg?$AAh?$AAP?$AAr?$AAi?$AA?5?$AAA?$AAl?$AAl?$AAo?$AAc?$AA?5?$AAR?$AAe?$AAg?$AAi?$AAo?$AAn?$AA?5?$AAP?$AAh@ 10002a40     hcdlib:cphysmem.obj
 0001:00001ae0       ??_C@_1KA@JBKPJKEP@?$AAC?$AAP?$AAh?$AAy?$AAs?$AAM?$AAe?$AAm?$AA?5?$AAS?$AAp?$AAe?$AAc?$AAi?$AAa?$AAl?$AA?5?$AAA?$AAl?$AAl?$AAo?$AAc?$AA?5?$AAR?$AAe?$AAg?$AAi?$AAo?$AAn?$AA?5?$AAP?$AAh@ 10002ae0     hcdlib:cphysmem.obj
 0001:00001b80       ??_C@_1KA@PIBOCLFE@?$AAC?$AAP?$AAh?$AAy?$AAs?$AAM?$AAe?$AAm?$AA?5?$AA?5?$AA?5?$AAT?$AAo?$AAt?$AAa?$AAl?$AA?5?$AAA?$AAl?$AAl?$AAo?$AAc?$AA?5?$AAR?$AAe?$AAg?$AAi?$AAo?$AAn?$AA?5?$AAP?$AAh@ 10002b80     hcdlib:cphysmem.obj
 0001:00001c20       ??_C@_1FA@ICCPJKCO@?$AAA?$AAl?$AAl?$AAo?$AAc?$AAa?$AAt?$AAi?$AAn?$AAg?$AA?5?$AAD?$AAM?$AAA?$AA?5?$AAb?$AAu?$AAf?$AAf?$AAe?$AAr?$AA?5?$AAf?$AAr?$AAo?$AAm?$AA?5?$AAs?$AAy?$AAs?$AAt?$AAe@ 10002c20     hcdlib:cphysmem.obj
 0001:00001c70       ??_C@_1EA@LENIGCOC@?$AAD?$AAM?$AAA?$AA?5?$AAb?$AAu?$AAf?$AAf?$AAe?$AAr?$AA?5?$AAp?$AAa?$AAs?$AAs?$AAe?$AAd?$AA?5?$AAi?$AAn?$AA?5?$AAf?$AAr?$AAo?$AAm?$AA?5?$AAP?$AAD?$AAD?$AA?$AN?$AA?6?$AA?$AA@ 10002c70     hcdlib:cphysmem.obj
 0001:00001cb0       ??_C@_1IG@NNFGCPBO@?$AAd?$AA?3?$AA?2?$AAy?$AAz?$AAk?$AAi?$AAq?$AAf?$AAe?$AA?2?$AAp?$AAu?$AAb?$AAl?$AAi?$AAc?$AA?2?$AAC?$AAO?$AAM?$AAM?$AAO?$AAN?$AA?2?$AAo?$AAa?$AAk?$AA?2?$AAd?$AAr?$AAi@ 10002cb0     hcdlib:cphysmem.obj
 0001:00001d38       ??_C@_1GE@MMCCLEGJ@?$AAC?$AAP?$AAh?$AAy?$AAs?$AAM?$AAe?$AAm?$AA?5?$AAI?$AAn?$AAi?$AAt?$AA?5?$AA?3?$AA?5?$AAH?$AAi?$AAg?$AAh?$AAP?$AAr?$AAi?$AA?5?$AAF?$AAr?$AAe?$AAe?$AA?5?$AAH?$AAe?$AAa@ 10002d38     hcdlib:cphysmem.obj
 0001:00001d9c       ??_C@_1CE@NLPJGAMO@?$AAF?$AAr?$AAe?$AAe?$AA?5?$AAH?$AAi?$AAg?$AAh?$AA?5?$AAP?$AAr?$AAi?$AA?5?$AAM?$AAe?$AAm?$AA?$AA@ 10002d9c     hcdlib:cphysmem.obj
 0001:00001dc0       ??_C@_1FO@GMLOFHA@?$AAC?$AAP?$AAh?$AAy?$AAs?$AAM?$AAe?$AAm?$AA?5?$AAI?$AAn?$AAi?$AAt?$AA?5?$AA?3?$AA?5?$AAM?$AAa?$AAi?$AAn?$AA?5?$AAF?$AAr?$AAe?$AAe?$AA?5?$AAH?$AAe?$AAa?$AAp?$AA?5?$AAN@ 10002dc0     hcdlib:cphysmem.obj
 0001:00001e20       ??_C@_1CC@BENCJCHP@?$AAF?$AAr?$AAe?$AAe?$AA?5?$AAL?$AAo?$AAw?$AA?5?$AAP?$AAr?$AAi?$AA?5?$AAM?$AAe?$AAm?$AA?$AA@ 10002e20     hcdlib:cphysmem.obj
 0001:00001e48       ??_C@_1JM@GLIPFLD@?$AAC?$AAP?$AAh?$AAy?$AAs?$AAM?$AAe?$AAm?$AA?5?$AAI?$AAn?$AAi?$AAt?$AA?5?$AA?3?$AA?5?$AAH?$AAi?$AAg?$AAh?$AAP?$AAr?$AAi?$AAF?$AAr?$AAe?$AAe?$AAL?$AAi?$AAs?$AAt?$AAH@ 10002e48     hcdlib:cphysmem.obj
 0001:00001ee8       ??_C@_1IA@BJAEEMDH@?$AAC?$AAP?$AAh?$AAy?$AAs?$AAM?$AAe?$AAm?$AA?5?$AAI?$AAn?$AAi?$AAt?$AA?5?$AA?3?$AA?5?$AAF?$AAr?$AAe?$AAe?$AAL?$AAi?$AAs?$AAt?$AAH?$AAe?$AAa?$AAd?$AA?5?$AA?$DN?$AA?5?$AA0@ 10002ee8     hcdlib:cphysmem.obj
 0001:00001f68       ??_C@_1FI@PMOPNGBB@?$AAC?$AAP?$AAh?$AAy?$AAs?$AAM?$AAe?$AAm?$AA?5?$AAI?$AAn?$AAi?$AAt?$AA?5?$AA?3?$AA?5?$AAN?$AAo?$AAd?$AAe?$AAF?$AAr?$AAe?$AAe?$AAL?$AAi?$AAs?$AAt?$AAH?$AAe?$AAa?$AAd@ 10002f68     hcdlib:cphysmem.obj
 0001:00001fc0       ??_C@_1FG@KBIHBEP@?$AAC?$AAP?$AAh?$AAy?$AAs?$AAM?$AAe?$AAm?$AA?5?$AAV?$AAa?$AAl?$AAi?$AAd?$AAa?$AAt?$AAe?$AAH?$AAe?$AAa?$AAp?$AAs?$AA?5?$AA?3?$AA?5?$AAN?$AAo?$AAd?$AAe?$AAs?$AA?5?$AAF@ 10002fc0     hcdlib:cphysmem.obj
 0001:00002018       ??_C@_1HE@BKCBJCLG@?$AAC?$AAP?$AAh?$AAy?$AAs?$AAM?$AAe?$AAm?$AA?5?$AAV?$AAa?$AAl?$AAi?$AAd?$AAa?$AAt?$AAe?$AAH?$AAe?$AAa?$AAp?$AAs?$AA?5?$AA?3?$AA?5?$AAI?$AAn?$AAv?$AAa?$AAl?$AAi?$AAd@ 10003018     hcdlib:cphysmem.obj
 0001:00002090       ??_C@_1HI@EIJALODG@?$AAC?$AAP?$AAh?$AAy?$AAs?$AAM?$AAe?$AAm?$AA?5?$AAV?$AAa?$AAl?$AAi?$AAd?$AAa?$AAt?$AAe?$AAH?$AAe?$AAa?$AAp?$AAs?$AA?5?$AA?3?$AA?5?$AAW?$AAe?$AA?8?$AAv?$AAe?$AA?5?$AAl@ 10003090     hcdlib:cphysmem.obj
 0001:00002108       ??_C@_1IK@IOHNCDME@?$AAC?$AAP?$AAh?$AAy?$AAs?$AAM?$AAe?$AAm?$AA?5?$AAV?$AAa?$AAl?$AAi?$AAd?$AAa?$AAt?$AAe?$AAH?$AAe?$AAa?$AAp?$AAs?$AA?5?$AA?3?$AA?5?$AAF?$AAr?$AAe?$AAe?$AAS?$AAi?$AAz@ 10003108     hcdlib:cphysmem.obj
 0001:00002198       ??_C@_1GO@BBFMJBGE@?$AAC?$AAP?$AAh?$AAy?$AAs?$AAM?$AAe?$AAm?$AA?5?$AAV?$AAa?$AAl?$AAi?$AAd?$AAa?$AAt?$AAe?$AAH?$AAe?$AAa?$AAp?$AAs?$AA?5?$AA?3?$AA?5?$AAI?$AAn?$AAv?$AAa?$AAl?$AAi?$AAd@ 10003198     hcdlib:cphysmem.obj
 0001:00002208       ??_C@_1JM@FJJCMIHE@?$AAI?$AAn?$AAU?$AAs?$AAe?$AAL?$AAi?$AAs?$AAt?$AA?$CI?$AAp?$AAr?$AAi?$AA?5?$AA?$DN?$AA?5?$AA?$CF?$AAd?$AA?$CJ?$AA?5?$AA?3?$AA?5?$AAp?$AAN?$AAo?$AAd?$AAe?$AA?5?$AAs?$AAi?$AAz?$AAe@ 10003208     hcdlib:cphysmem.obj
 0001:000022a8       ??_C@_1GM@JDBBEPGD@?$AAC?$AAP?$AAh?$AAy?$AAs?$AAM?$AAe?$AAm?$AA?5?$AAV?$AAa?$AAl?$AAi?$AAd?$AAa?$AAt?$AAe?$AAH?$AAe?$AAa?$AAp?$AAs?$AA?5?$AA?3?$AA?5?$AAI?$AAn?$AAv?$AAa?$AAl?$AAi?$AAd@ 100032a8     hcdlib:cphysmem.obj
 0001:00002318       ??_C@_1HE@LFOBKGBN@?$AAC?$AAP?$AAh?$AAy?$AAs?$AAM?$AAe?$AAm?$AA?5?$AAV?$AAa?$AAl?$AAi?$AAd?$AAa?$AAt?$AAe?$AAH?$AAe?$AAa?$AAp?$AAs?$AA?5?$AA?3?$AA?5?$AAF?$AAr?$AAe?$AAe?$AA?5?$AAL?$AAi@ 10003318     hcdlib:cphysmem.obj
 0001:00002390       ??_C@_1JK@ENFIOHDK@?$AAF?$AAr?$AAe?$AAe?$AAL?$AAi?$AAs?$AAt?$AA?$CI?$AAp?$AAr?$AAi?$AA?5?$AA?$DN?$AA?5?$AA?$CF?$AAd?$AA?$CJ?$AA?5?$AA?3?$AA?5?$AAp?$AAN?$AAo?$AAd?$AAe?$AA?5?$AAs?$AAi?$AAz?$AAe?$AA?5@ 10003390     hcdlib:cphysmem.obj
 0001:00002430       ??_C@_1IC@KPOFODEL@?$AAd?$AA?3?$AA?2?$AAy?$AAz?$AAk?$AAi?$AAq?$AAf?$AAe?$AA?2?$AAp?$AAu?$AAb?$AAl?$AAi?$AAc?$AA?2?$AAc?$AAo?$AAm?$AAm?$AAo?$AAn?$AA?2?$AAo?$AAa?$AAk?$AA?2?$AAd?$AAr?$AAi@ 10003430     hcdlib:cphysmem.obj
 0001:000024b4       ??_C@_1BK@HELANJJ@?$AAD?$AAe?$AAf?$AAa?$AAu?$AAl?$AAt?$AA?5?$AAD?$AAe?$AAs?$AAc?$AA?$AA@ 100034b4     hcdlib:cphysmem.obj
 0001:000024d0       ??_C@_1BK@DHHEGMON@?$AAD?$AAe?$AAl?$AAe?$AAt?$AAe?$AAd?$AA?5?$AAN?$AAo?$AAd?$AAe?$AA?$AA@ 100034d0     hcdlib:cphysmem.obj
 0001:000024f0       ??_C@_1FO@DKILOPHK@?$AAC?$AAP?$AAh?$AAy?$AAs?$AAM?$AAe?$AAm?$AA?5?$AAA?$AAl?$AAl?$AAo?$AAc?$AAa?$AAt?$AAe?$AAM?$AAe?$AAm?$AAo?$AAr?$AAy?$AA?5?$AA?3?$AA?5?$AAb?$AAS?$AAp?$AAe?$AAc?$AAi@ 100034f0     hcdlib:cphysmem.obj
 0001:00002550       ??_C@_1JG@MNOBEEOD@?$AAC?$AAP?$AAh?$AAy?$AAs?$AAM?$AAe?$AAm?$AA?5?$AAA?$AAl?$AAl?$AAo?$AAc?$AAa?$AAt?$AAe?$AAM?$AAe?$AAm?$AAo?$AAr?$AAy?$AA?5?$AA?3?$AA?5?$AAP?$AAA?$AA?5?$AA?$DN?$AA?5?$AA0@ 10003550     hcdlib:cphysmem.obj
 0001:000025e8       ??_C@_1FM@OOLOAMIO@?$AAC?$AAP?$AAh?$AAy?$AAs?$AAM?$AAe?$AAm?$AA?5?$AAA?$AAl?$AAl?$AAo?$AAc?$AAa?$AAt?$AAe?$AAM?$AAe?$AAm?$AAo?$AAr?$AAy?$AA?5?$AA?3?$AA?5?$AAN?$AAo?$AA?5?$AAm?$AAe?$AAm@ 100035e8     hcdlib:cphysmem.obj
 0001:00002648       ??_C@_1HA@LDBHCAGE@?$AAC?$AAP?$AAh?$AAy?$AAs?$AAM?$AAe?$AAm?$AA?3?$AA?5?$AAH?$AAe?$AAa?$AAp?$AA?5?$AAp?$AAr?$AAi?$AA?5?$AA?$DN?$AA?5?$AA?$CF?$AAd?$AA?5?$AAb?$AAe?$AAf?$AAo?$AAr?$AAe?$AA?5?$AAa@ 10003648     hcdlib:cphysmem.obj
 0001:000026b8       ??_C@_1FK@GOKAFDHN@?$AAA?$AAl?$AAl?$AAo?$AAc?$AAa?$AAt?$AAe?$AAM?$AAe?$AAm?$AAo?$AAr?$AAy?$AA?5?$AAD?$AAe?$AAs?$AAc?$AA?5?$AA?$DN?$AA?5?$AA?$CF?$AAs?$AA?3?$AA?5?$AA?$CI?$AAr?$AAo?$AAu?$AAn?$AAd@ 100036b8     hcdlib:cphysmem.obj
 0001:00002718       ??_C@_1GC@CLHBJKAN@?$AAC?$AAP?$AAh?$AAy?$AAs?$AAM?$AAe?$AAm?$AA?3?$AA?5?$AAH?$AAe?$AAa?$AAp?$AA?5?$AAp?$AAr?$AAi?$AA?5?$AA?$DN?$AA?5?$AA?$CF?$AAd?$AA?5?$AAa?$AAf?$AAt?$AAe?$AAr?$AA?5?$AAf?$AAr@ 10003718     hcdlib:cphysmem.obj
 0001:0000277c       ??_C@_1BK@BIHKKMPG@?$AAF?$AAr?$AAe?$AAe?$AAd?$AA?5?$AAM?$AAe?$AAm?$AAo?$AAr?$AAy?$AA?$AA@ 1000377c     hcdlib:cphysmem.obj
 0001:00002798       ??_C@_1IO@GHNBCJEB@?$AAC?$AAP?$AAh?$AAy?$AAs?$AAM?$AAe?$AAm?$AA?5?$AAF?$AAr?$AAe?$AAe?$AAM?$AAe?$AAm?$AAo?$AAr?$AAy?$AA?5?$AA?3?$AA?5?$AAP?$AAA?$AA?5?$AA?$DN?$AA?5?$AA0?$AAx?$AA?$CF?$AA0?$AA8@ 10003798     hcdlib:cphysmem.obj
 0001:00002828       ??_C@_1GE@CAKPDPGE@?$AAC?$AAP?$AAh?$AAy?$AAs?$AAM?$AAe?$AAm?$AA?3?$AA?5?$AAH?$AAe?$AAa?$AAp?$AA?5?$AAp?$AAr?$AAi?$AA?5?$AA?$DN?$AA?5?$AA?$CF?$AAd?$AA?5?$AAb?$AAe?$AAf?$AAo?$AAr?$AAe?$AA?5?$AAf@ 10003828     hcdlib:cphysmem.obj
 0001:00002890       ??_C@_1EA@JHPLNJAE@?$AA?9?$AAC?$AAD?$AAe?$AAv?$AAi?$AAc?$AAe?$AA?3?$AA?3?$AAI?$AAn?$AAi?$AAt?$AAi?$AAa?$AAl?$AAi?$AAz?$AAe?$AA?0?$AA?5?$AAs?$AAu?$AAc?$AAc?$AAe?$AAs?$AAs?$AA?$CB?$AA?6?$AA?$AA@ 10003890     hcdlib:cdevice.obj
 0001:000028d0       ??_C@_1GO@JGJHIIIJ@?$AA?9?$AAC?$AAD?$AAe?$AAv?$AAi?$AAc?$AAe?$AA?3?$AA?3?$AAI?$AAn?$AAi?$AAt?$AAi?$AAa?$AAl?$AAi?$AAz?$AAe?$AA?5?$AA?9?$AA?5?$AAC?$AAo?$AAu?$AAl?$AAd?$AA?5?$AAn?$AAo?$AAt@ 100038d0     hcdlib:cdevice.obj
 0001:00002940       ??_C@_1CO@MCCAIHAO@?$AAH?$AAc?$AAd?$AAS?$AAe?$AAl?$AAe?$AAc?$AAt?$AAC?$AAo?$AAn?$AAf?$AAi?$AAg?$AAu?$AAr?$AAa?$AAt?$AAi?$AAo?$AAn?$AA?$AA@ 10003940     hcdlib:cdevice.obj
 0001:00002970       ??_C@_1DC@HKGGOMPG@?$AAH?$AAc?$AAd?$AAD?$AAe?$AAv?$AAi?$AAc?$AAe?$AAS?$AAu?$AAs?$AAp?$AAe?$AAn?$AAd?$AAe?$AAR?$AAe?$AAs?$AAu?$AAm?$AAe?$AAd?$AA?$AA@ 10003970     hcdlib:cdevice.obj
 0001:000029a4       ??_C@_1CE@KAKNBFJP@?$AAH?$AAc?$AAd?$AAD?$AAe?$AAv?$AAi?$AAc?$AAe?$AAD?$AAe?$AAt?$AAa?$AAc?$AAh?$AAe?$AAd?$AA?$AA@ 100039a4     hcdlib:cdevice.obj
 0001:000029c8       ??_C@_1CE@MBINLHH@?$AAH?$AAc?$AAd?$AAD?$AAe?$AAv?$AAi?$AAc?$AAe?$AAA?$AAt?$AAt?$AAa?$AAc?$AAh?$AAe?$AAd?$AA?$AA@ 100039c8     hcdlib:cdevice.obj
 0001:000029ec       ??_C@_1BE@NANPENDH@?$AAH?$AAc?$AAd?$AAA?$AAt?$AAt?$AAa?$AAc?$AAh?$AA?$AA@ 100039ec     hcdlib:cdevice.obj
 0001:00002a00       ??_C@_1GC@NHBDHMML@?$AA?9?$AAC?$AAD?$AAe?$AAv?$AAi?$AAc?$AAe?$AA?3?$AA?3?$AAI?$AAn?$AAi?$AAt?$AAi?$AAa?$AAl?$AAi?$AAz?$AAe?$AA?5?$AA?9?$AA?5?$AAC?$AAo?$AAu?$AAl?$AAd?$AA?5?$AAn?$AAo?$AAt@ 10003a00     hcdlib:cdevice.obj
 0001:00002a64       ??_C@_1BC@MPAIGMIO@?$AAU?$AAS?$AAB?$AAD?$AA?4?$AAD?$AAL?$AAL?$AA?$AA@ 10003a64     hcdlib:cdevice.obj
 0001:00002a78       ??_C@_1IE@IMGGLKFF@?$AAd?$AA?3?$AA?2?$AAy?$AAz?$AAk?$AAi?$AAq?$AAf?$AAe?$AA?2?$AAp?$AAu?$AAb?$AAl?$AAi?$AAc?$AA?2?$AAC?$AAO?$AAM?$AAM?$AAO?$AAN?$AA?2?$AAo?$AAa?$AAk?$AA?2?$AAd?$AAr?$AAi@ 10003a78     hcdlib:cdevice.obj
 0001:00002afc       ??_C@_1DI@FHCICPGN@?$AA?$CL?$AAC?$AAD?$AAe?$AAv?$AAi?$AAc?$AAe?$AAG?$AAl?$AAo?$AAb?$AAa?$AAl?$AA?3?$AA?3?$AAI?$AAn?$AAi?$AAt?$AAi?$AAa?$AAl?$AAi?$AAz?$AAe?$AA?6?$AA?$AA@ 10003afc     hcdlib:cdevice.obj
 0001:00002b34       ??_C@_1DA@LHFPLNDP@?$AA?9?$AAC?$AAD?$AAe?$AAv?$AAi?$AAc?$AAe?$AA?3?$AA?3?$AAD?$AAe?$AAI?$AAn?$AAi?$AAt?$AAi?$AAa?$AAl?$AAi?$AAz?$AAe?$AA?6?$AA?$AA@ 10003b34     hcdlib:cdevice.obj
 0001:00002b64       ??_C@_1BE@MDMBICMJ@?$AAH?$AAc?$AAd?$AAD?$AAe?$AAt?$AAa?$AAc?$AAh?$AA?$AA@ 10003b64     hcdlib:cdevice.obj
 0001:00002b78       ??_C@_1DA@DKPLNHPH@?$AA?$CL?$AAC?$AAD?$AAe?$AAv?$AAi?$AAc?$AAe?$AA?3?$AA?3?$AAD?$AAe?$AAI?$AAn?$AAi?$AAt?$AAi?$AAa?$AAl?$AAi?$AAz?$AAe?$AA?6?$AA?$AA@ 10003b78     hcdlib:cdevice.obj
 0001:00002ba8       ??_C@_1HO@NEAGMBBN@?$AA?9?$AAC?$AAD?$AAe?$AAv?$AAi?$AAc?$AAe?$AA?3?$AA?3?$AAR?$AAe?$AAs?$AAe?$AAr?$AAv?$AAe?$AAA?$AAd?$AAd?$AAr?$AAe?$AAs?$AAs?$AA?0?$AA?5?$AAr?$AAe?$AAt?$AAu?$AAr?$AAn@ 10003ba8     hcdlib:cdevice.obj
 0001:00002c28       ??_C@_1EA@FINECAO@?$AA?$CL?$AAC?$AAD?$AAe?$AAv?$AAi?$AAc?$AAe?$AAG?$AAl?$AAo?$AAb?$AAa?$AAl?$AA?3?$AA?3?$AAR?$AAe?$AAs?$AAe?$AAr?$AAv?$AAe?$AAA?$AAd?$AAd?$AAr?$AAe?$AAs?$AAs?$AA?6?$AA?$AA@ 10003c28     hcdlib:cdevice.obj
 0001:00002c68       ??_C@_1EM@JAIJPGKI@?$AA?9?$AAC?$AAD?$AAe?$AAv?$AAi?$AAc?$AAe?$AA?3?$AA?3?$AAF?$AAr?$AAe?$AAe?$AAA?$AAd?$AAd?$AAr?$AAe?$AAs?$AAs?$AA?5?$AA?9?$AA?5?$AAa?$AAd?$AAd?$AAr?$AAe?$AAs?$AAs?$AA?5@ 10003c68     hcdlib:cdevice.obj
 0001:00002cb8       ??_C@_1FI@GOMGBLHC@?$AA?$CL?$AAC?$AAD?$AAe?$AAv?$AAi?$AAc?$AAe?$AAG?$AAl?$AAo?$AAb?$AAa?$AAl?$AA?3?$AA?3?$AAF?$AAr?$AAe?$AAe?$AAA?$AAd?$AAd?$AAr?$AAe?$AAs?$AAs?$AA?5?$AA?9?$AA?5?$AAa?$AAd@ 10003cb8     hcdlib:cdevice.obj
 0001:00002d10       ??_C@_1CG@MCANFPKD@?$AA?9?$AAC?$AAD?$AAe?$AAv?$AAi?$AAc?$AAe?$AA?3?$AA?3?$AAC?$AAD?$AAe?$AAv?$AAi?$AAc?$AAe?$AA?6?$AA?$AA@ 10003d10     hcdlib:cdevice.obj
 0001:00002d38       ??_C@_1CG@FJNNFPGN@?$AA?$CL?$AAC?$AAD?$AAe?$AAv?$AAi?$AAc?$AAe?$AA?3?$AA?3?$AAC?$AAD?$AAe?$AAv?$AAi?$AAc?$AAe?$AA?6?$AA?$AA@ 10003d38     hcdlib:cdevice.obj
 0001:00002d60       ??_7CDevice@@6B@           10003d60     hcdlib:cdevice.obj
 0001:00002d9c       ??_C@_1CI@EJOBNDNG@?$AA?9?$AAC?$AAD?$AAe?$AAv?$AAi?$AAc?$AAe?$AA?3?$AA?3?$AA?$HO?$AAC?$AAD?$AAe?$AAv?$AAi?$AAc?$AAe?$AA?6?$AA?$AA@ 10003d9c     hcdlib:cdevice.obj
 0001:00002dc4       ??_C@_1CI@BMJILCMG@?$AA?$CL?$AAC?$AAD?$AAe?$AAv?$AAi?$AAc?$AAe?$AA?3?$AA?3?$AA?$HO?$AAC?$AAD?$AAe?$AAv?$AAi?$AAc?$AAe?$AA?6?$AA?$AA@ 10003dc4     hcdlib:cdevice.obj
 0001:00002df0       ??_C@_1IK@BBOLADBJ@?$AA?9?$AAC?$AAD?$AAe?$AAv?$AAi?$AAc?$AAe?$AA?3?$AA?3?$AAC?$AAr?$AAe?$AAa?$AAt?$AAe?$AAU?$AAs?$AAb?$AAC?$AAo?$AAn?$AAf?$AAi?$AAg?$AAu?$AAr?$AAa?$AAt?$AAi?$AAo?$AAn@ 10003df0     hcdlib:cdevice.obj
 0001:00002e80       ??_C@_1HE@OBCNJEAP@?$AA?9?$AAC?$AAD?$AAe?$AAv?$AAi?$AAc?$AAe?$AA?3?$AA?3?$AAC?$AAr?$AAe?$AAa?$AAt?$AAe?$AAU?$AAs?$AAb?$AAC?$AAo?$AAn?$AAf?$AAi?$AAg?$AAu?$AAr?$AAa?$AAt?$AAi?$AAo?$AAn@ 10003e80     hcdlib:cdevice.obj
 0001:00002ef8       ??_C@_1FG@PLHAINKD@?$AA?$CL?$AAC?$AAD?$AAe?$AAv?$AAi?$AAc?$AAe?$AA?3?$AA?3?$AAC?$AAr?$AAe?$AAa?$AAt?$AAe?$AAU?$AAs?$AAb?$AAC?$AAo?$AAn?$AAf?$AAi?$AAg?$AAu?$AAr?$AAa?$AAt?$AAi?$AAo?$AAn@ 10003ef8     hcdlib:cdevice.obj
 0001:00002f50       ??_C@_1FG@CKPOJHLM@?$AA?9?$AAC?$AAD?$AAe?$AAv?$AAi?$AAc?$AAe?$AA?3?$AA?3?$AAD?$AAe?$AAl?$AAe?$AAt?$AAe?$AAU?$AAs?$AAb?$AAC?$AAo?$AAn?$AAf?$AAi?$AAg?$AAu?$AAr?$AAa?$AAt?$AAi?$AAo?$AAn@ 10003f50     hcdlib:cdevice.obj
 0001:00002fa8       ??_C@_1FG@MDKEDGEC@?$AA?$CL?$AAC?$AAD?$AAe?$AAv?$AAi?$AAc?$AAe?$AA?3?$AA?3?$AAD?$AAe?$AAl?$AAe?$AAt?$AAe?$AAU?$AAs?$AAb?$AAC?$AAo?$AAn?$AAf?$AAi?$AAg?$AAu?$AAr?$AAa?$AAt?$AAi?$AAo?$AAn@ 10003fa8     hcdlib:cdevice.obj
 0001:00003000       ??_C@_1HI@HLMBKNMH@?$AA?9?$AAC?$AAD?$AAe?$AAv?$AAi?$AAc?$AAe?$AA?$CI?$AA?$CF?$AAs?$AA?5?$AAt?$AAi?$AAe?$AAr?$AA?5?$AA?$CF?$AAd?$AA?$CJ?$AA?3?$AA?3?$AAA?$AAl?$AAl?$AAo?$AAc?$AAa?$AAt?$AAe?$AAP?$AAi@ 10004000     hcdlib:cdevice.obj
 0001:00003078       ??_C@_1GK@EPJKGPON@?$AAC?$AAD?$AAe?$AAv?$AAi?$AAc?$AAe?$AA?$CI?$AA?$CF?$AAs?$AA?5?$AAt?$AAi?$AAe?$AAr?$AA?5?$AA?$CF?$AAd?$AA?$CJ?$AA?3?$AA?3?$AAA?$AAl?$AAl?$AAo?$AAc?$AAa?$AAt?$AAe?$AAP?$AAi?$AAp@ 10004078     hcdlib:cdevice.obj
 0001:000030e8       ??_C@_1JE@NPCBHKBA@?$AAC?$AAD?$AAe?$AAv?$AAi?$AAc?$AAe?$AA?$CI?$AA?$CF?$AAs?$AA?5?$AAt?$AAi?$AAe?$AAr?$AA?5?$AA?$CF?$AAd?$AA?$CJ?$AA?3?$AA?3?$AAA?$AAl?$AAl?$AAo?$AAc?$AAa?$AAt?$AAe?$AAP?$AAi?$AAp@ 100040e8     hcdlib:cdevice.obj
 0001:00003180       ??_C@_1FC@EIACOBNP@?$AA?$CL?$AAC?$AAD?$AAe?$AAv?$AAi?$AAc?$AAe?$AA?$CI?$AA?$CF?$AAs?$AA?5?$AAt?$AAi?$AAe?$AAr?$AA?5?$AA?$CF?$AAd?$AA?$CJ?$AA?3?$AA?3?$AAA?$AAl?$AAl?$AAo?$AAc?$AAa?$AAt?$AAe?$AAP?$AAi@ 10004180     hcdlib:cdevice.obj
 0001:000031d8       ??_C@_1IA@LJFJLBFJ@?$AAC?$AAH?$AAu?$AAb?$AA?$CI?$AA?$CF?$AAs?$AA?5?$AAt?$AAi?$AAe?$AAr?$AA?5?$AA?$CF?$AAd?$AA?$CJ?$AA?3?$AA?3?$AAD?$AAi?$AAs?$AAa?$AAb?$AAl?$AAe?$AAD?$AAe?$AAv?$AAi?$AAc?$AAe?$AA?5@ 100041d8     hcdlib:cdevice.obj
 0001:00003258       ??_C@_1KC@CMBFBEHD@?$AA?9?$AAC?$AAH?$AAu?$AAb?$AA?$CI?$AA?$CF?$AAs?$AA?5?$AAt?$AAi?$AAe?$AAr?$AA?5?$AA?$CF?$AAd?$AA?$CJ?$AA?3?$AA?3?$AAS?$AAu?$AAs?$AAp?$AAe?$AAn?$AAd?$AAR?$AAe?$AAs?$AAu?$AAm?$AAe@ 10004258     hcdlib:cdevice.obj
 0001:00003300       ??_C@_1IA@DMLFEMLF@?$AA?$CL?$AAC?$AAH?$AAu?$AAb?$AA?$CI?$AA?$CF?$AAs?$AA?5?$AAt?$AAi?$AAe?$AAr?$AA?5?$AA?$CF?$AAd?$AA?$CJ?$AA?3?$AA?3?$AAS?$AAu?$AAs?$AAp?$AAe?$AAn?$AAd?$AAR?$AAe?$AAs?$AAu?$AAm?$AAe@ 10004300     hcdlib:cdevice.obj
 0001:00003380       ??_C@_1DK@MGILKFGP@?$AA?9?$AAD?$AAu?$AAm?$AAp?$AA?5?$AAU?$AAS?$AAB?$AA_?$AAD?$AAE?$AAV?$AAI?$AAC?$AAE?$AA_?$AAD?$AAE?$AAS?$AAC?$AAR?$AAI?$AAP?$AAT?$AAO?$AAR?$AA?6?$AA?$AA@ 10004380     hcdlib:cdevice.obj
 0001:000033bc       ??_C@_1DM@HKEDEOHI@?$AA?7?$AAb?$AAN?$AAu?$AAm?$AAC?$AAo?$AAn?$AAf?$AAi?$AAg?$AAu?$AAr?$AAa?$AAt?$AAi?$AAo?$AAn?$AAs?$AA?5?$AA?$DN?$AA?5?$AA0?$AAx?$AA?$CF?$AA0?$AA2?$AAx?$AA?6?$AA?$AA@ 100043bc     hcdlib:cdevice.obj
 0001:000033f8       ??_C@_1DC@KFEMFLN@?$AA?7?$AAi?$AAS?$AAe?$AAr?$AAi?$AAa?$AAl?$AAN?$AAu?$AAm?$AAb?$AAe?$AAr?$AA?5?$AA?$DN?$AA?5?$AA0?$AAx?$AA?$CF?$AA0?$AA2?$AAx?$AA?6?$AA?$AA@ 100043f8     hcdlib:cdevice.obj
 0001:0000342c       ??_C@_1CI@KLPGHDHJ@?$AA?7?$AAi?$AAP?$AAr?$AAo?$AAd?$AAu?$AAc?$AAt?$AA?5?$AA?$DN?$AA?5?$AA0?$AAx?$AA?$CF?$AA0?$AA2?$AAx?$AA?6?$AA?$AA@ 1000442c     hcdlib:cdevice.obj
 0001:00003454       ??_C@_1DC@GGENBBGM@?$AA?7?$AAi?$AAM?$AAa?$AAn?$AAu?$AAf?$AAa?$AAc?$AAt?$AAu?$AAr?$AAe?$AAr?$AA?5?$AA?$DN?$AA?5?$AA0?$AAx?$AA?$CF?$AA0?$AA2?$AAx?$AA?6?$AA?$AA@ 10004454     hcdlib:cdevice.obj
 0001:00003488       ??_C@_1CK@PABHMLCI@?$AA?7?$AAb?$AAc?$AAd?$AAD?$AAe?$AAv?$AAi?$AAc?$AAe?$AA?5?$AA?$DN?$AA?5?$AA0?$AAx?$AA?$CF?$AA0?$AA4?$AAx?$AA?6?$AA?$AA@ 10004488     hcdlib:cdevice.obj
 0001:000034b4       ??_C@_1CK@POCACHBF@?$AA?7?$AAi?$AAd?$AAP?$AAr?$AAo?$AAd?$AAu?$AAc?$AAt?$AA?5?$AA?$DN?$AA?5?$AA0?$AAx?$AA?$CF?$AA0?$AA4?$AAx?$AA?6?$AA?$AA@ 100044b4     hcdlib:cdevice.obj
 0001:000034e0       ??_C@_1CI@DKBCNBPN@?$AA?7?$AAi?$AAd?$AAV?$AAe?$AAn?$AAd?$AAo?$AAr?$AA?5?$AA?$DN?$AA?5?$AA0?$AAx?$AA?$CF?$AA0?$AA4?$AAx?$AA?6?$AA?$AA@ 100044e0     hcdlib:cdevice.obj
 0001:00003508       ??_C@_1DG@DNBBNAFE@?$AA?7?$AAb?$AAM?$AAa?$AAx?$AAP?$AAa?$AAc?$AAk?$AAe?$AAt?$AAS?$AAi?$AAz?$AAe?$AA0?$AA?5?$AA?$DN?$AA?5?$AA0?$AAx?$AA?$CF?$AA0?$AA2?$AAx?$AA?6?$AA?$AA@ 10004508     hcdlib:cdevice.obj
 0001:00003540       ??_C@_1DG@ILHCOCOC@?$AA?7?$AAb?$AAD?$AAe?$AAv?$AAi?$AAc?$AAe?$AAP?$AAr?$AAo?$AAt?$AAo?$AAc?$AAo?$AAl?$AA?5?$AA?$DN?$AA?5?$AA0?$AAx?$AA?$CF?$AA0?$AA2?$AAx?$AA?6?$AA?$AA@ 10004540     hcdlib:cdevice.obj
 0001:00003578       ??_C@_1DG@ECOHLBJB@?$AA?7?$AAb?$AAD?$AAe?$AAv?$AAi?$AAc?$AAe?$AAS?$AAu?$AAb?$AAC?$AAl?$AAa?$AAs?$AAs?$AA?5?$AA?$DN?$AA?5?$AA0?$AAx?$AA?$CF?$AA0?$AA2?$AAx?$AA?6?$AA?$AA@ 10004578     hcdlib:cdevice.obj
 0001:000035b0       ??_C@_1DA@OGADBMKG@?$AA?7?$AAb?$AAD?$AAe?$AAv?$AAi?$AAc?$AAe?$AAC?$AAl?$AAa?$AAs?$AAs?$AA?5?$AA?$DN?$AA?5?$AA0?$AAx?$AA?$CF?$AA0?$AA2?$AAx?$AA?6?$AA?$AA@ 100045b0     hcdlib:cdevice.obj
 0001:000035e0       ??_C@_1CE@KILHOIAM@?$AA?7?$AAb?$AAc?$AAd?$AAU?$AAS?$AAB?$AA?5?$AA?$DN?$AA?5?$AA0?$AAx?$AA?$CF?$AA0?$AA4?$AAx?$AA?6?$AA?$AA@ 100045e0     hcdlib:cdevice.obj
 0001:00003604       ??_C@_1DG@KKACGDHH@?$AA?7?$AAb?$AAD?$AAe?$AAs?$AAc?$AAr?$AAi?$AAp?$AAt?$AAo?$AAr?$AAT?$AAy?$AAp?$AAe?$AA?5?$AA?$DN?$AA?5?$AA0?$AAx?$AA?$CF?$AA0?$AA2?$AAx?$AA?6?$AA?$AA@ 10004604     hcdlib:cdevice.obj
 0001:0000363c       ??_C@_1CG@HCKNJKHJ@?$AA?7?$AAb?$AAL?$AAe?$AAn?$AAg?$AAt?$AAh?$AA?5?$AA?$DN?$AA?5?$AA0?$AAx?$AA?$CF?$AA0?$AA2?$AAx?$AA?6?$AA?$AA@ 1000463c     hcdlib:cdevice.obj
 0001:00003664       ??_C@_1DK@KDGIICEE@?$AA?$CL?$AAD?$AAu?$AAm?$AAp?$AA?5?$AAU?$AAS?$AAB?$AA_?$AAD?$AAE?$AAV?$AAI?$AAC?$AAE?$AA_?$AAD?$AAE?$AAS?$AAC?$AAR?$AAI?$AAP?$AAT?$AAO?$AAR?$AA?6?$AA?$AA@ 10004664     hcdlib:cdevice.obj
 0001:000036a0       ??_C@_1EI@GPGKHEHH@?$AA?9?$AAD?$AAu?$AAm?$AAp?$AA?5?$AAU?$AAS?$AAB?$AA_?$AAC?$AAO?$AAN?$AAF?$AAI?$AAG?$AAU?$AAR?$AAA?$AAT?$AAI?$AAO?$AAN?$AA_?$AAD?$AAE?$AAS?$AAC?$AAR?$AAI?$AAP?$AAT@ 100046a0     hcdlib:cdevice.obj
 0001:000036e8       ??_C@_1CI@BHMCOMDM@?$AA?7?$AAM?$AAa?$AAx?$AAP?$AAo?$AAw?$AAe?$AAr?$AA?5?$AA?$DN?$AA?5?$AA0?$AAx?$AA?$CF?$AA0?$AA2?$AAx?$AA?6?$AA?$AA@ 100046e8     hcdlib:cdevice.obj
 0001:00003710       ??_C@_1EI@OGFINNGI@?$AA?7?$AA?7?$AAb?$AAm?$AAA?$AAt?$AAt?$AAr?$AAi?$AAb?$AAu?$AAt?$AAe?$AAs?$AA?0?$AA?5?$AAR?$AAe?$AAm?$AAo?$AAt?$AAe?$AA?5?$AAW?$AAa?$AAk?$AAe?$AAu?$AAp?$AA?5?$AA?$DN?$AA?5@ 10004710     hcdlib:cdevice.obj
 0001:00003758       ??_C@_1EG@JGMNAAKF@?$AA?7?$AA?7?$AAb?$AAm?$AAA?$AAt?$AAt?$AAr?$AAi?$AAb?$AAu?$AAt?$AAe?$AAs?$AA?0?$AA?5?$AAS?$AAe?$AAl?$AAf?$AA?5?$AAP?$AAo?$AAw?$AAe?$AAr?$AAe?$AAd?$AA?5?$AA?$DN?$AA?5?$AA?$CF@ 10004758     hcdlib:cdevice.obj
 0001:000037a0       ??_C@_1EE@FIOJAKAP@?$AA?7?$AA?7?$AAb?$AAm?$AAA?$AAt?$AAt?$AAr?$AAi?$AAb?$AAu?$AAt?$AAe?$AAs?$AA?0?$AA?5?$AAB?$AAu?$AAs?$AA?5?$AAP?$AAo?$AAw?$AAe?$AAr?$AAe?$AAd?$AA?5?$AA?$DN?$AA?5?$AA?$CF?$AAd@ 100047a0     hcdlib:cdevice.obj
 0001:000037e4       ??_C@_1DA@LCDJCEML@?$AA?7?$AAb?$AAm?$AAA?$AAt?$AAt?$AAr?$AAi?$AAb?$AAu?$AAt?$AAe?$AAs?$AA?5?$AA?$DN?$AA?5?$AA0?$AAx?$AA?$CF?$AA0?$AA2?$AAx?$AA?6?$AA?$AA@ 100047e4     hcdlib:cdevice.obj
 0001:00003814       ??_C@_1DE@DPPBJEKC@?$AA?7?$AAi?$AAC?$AAo?$AAn?$AAf?$AAi?$AAg?$AAu?$AAr?$AAa?$AAt?$AAi?$AAo?$AAn?$AA?5?$AA?$DN?$AA?5?$AA0?$AAx?$AA?$CF?$AA0?$AA2?$AAx?$AA?6?$AA?$AA@ 10004814     hcdlib:cdevice.obj
 0001:00003848       ??_C@_1DO@IEJMMIGI@?$AA?7?$AAb?$AAC?$AAo?$AAn?$AAf?$AAi?$AAg?$AAu?$AAr?$AAa?$AAt?$AAi?$AAo?$AAn?$AAV?$AAa?$AAl?$AAu?$AAe?$AA?5?$AA?$DN?$AA?5?$AA0?$AAx?$AA?$CF?$AA0?$AA2?$AAx?$AA?6?$AA?$AA@ 10004848     hcdlib:cdevice.obj
 0001:00003888       ??_C@_1DE@CEAKMJHK@?$AA?7?$AAb?$AAN?$AAu?$AAm?$AAI?$AAn?$AAt?$AAe?$AAr?$AAf?$AAa?$AAc?$AAe?$AAs?$AA?5?$AA?$DN?$AA?5?$AA0?$AAx?$AA?$CF?$AA0?$AA2?$AAx?$AA?6?$AA?$AA@ 10004888     hcdlib:cdevice.obj
 0001:000038bc       ??_C@_1DA@BIBJMFOD@?$AA?7?$AAw?$AAT?$AAo?$AAt?$AAa?$AAl?$AAL?$AAe?$AAn?$AAg?$AAt?$AAh?$AA?5?$AA?$DN?$AA?5?$AA0?$AAx?$AA?$CF?$AA0?$AA4?$AAx?$AA?6?$AA?$AA@ 100048bc     hcdlib:cdevice.obj
 0001:000038f0       ??_C@_1EI@DNLDJBIN@?$AA?$CL?$AAD?$AAu?$AAm?$AAp?$AA?5?$AAU?$AAS?$AAB?$AA_?$AAC?$AAO?$AAN?$AAF?$AAI?$AAG?$AAU?$AAR?$AAA?$AAT?$AAI?$AAO?$AAN?$AA_?$AAD?$AAE?$AAS?$AAC?$AAR?$AAI?$AAP?$AAT@ 100048f0     hcdlib:cdevice.obj
 0001:00003938       ??_C@_1EA@GKDHLAHP@?$AA?9?$AAD?$AAu?$AAm?$AAp?$AA?5?$AAU?$AAS?$AAB?$AA_?$AAI?$AAN?$AAT?$AAE?$AAR?$AAF?$AAA?$AAC?$AAE?$AA_?$AAD?$AAE?$AAS?$AAC?$AAR?$AAI?$AAP?$AAT?$AAO?$AAR?$AA?6?$AA?$AA@ 10004938     hcdlib:cdevice.obj
 0001:00003978       ??_C@_1CM@MOJHGEFA@?$AA?7?$AAi?$AAI?$AAn?$AAt?$AAe?$AAr?$AAf?$AAa?$AAc?$AAe?$AA?5?$AA?$DN?$AA?5?$AA0?$AAx?$AA?$CF?$AA0?$AA2?$AAx?$AA?6?$AA?$AA@ 10004978     hcdlib:cdevice.obj
 0001:000039a4       ??_C@_1DM@NGGHHJBN@?$AA?7?$AAb?$AAI?$AAn?$AAt?$AAe?$AAr?$AAf?$AAa?$AAc?$AAe?$AAP?$AAr?$AAo?$AAt?$AAo?$AAc?$AAo?$AAl?$AA?5?$AA?$DN?$AA?5?$AA0?$AAx?$AA?$CF?$AA0?$AA2?$AAx?$AA?6?$AA?$AA@ 100049a4     hcdlib:cdevice.obj
 0001:000039e0       ??_C@_1DM@BPPCCKGO@?$AA?7?$AAb?$AAI?$AAn?$AAt?$AAe?$AAr?$AAf?$AAa?$AAc?$AAe?$AAS?$AAu?$AAb?$AAC?$AAl?$AAa?$AAs?$AAs?$AA?5?$AA?$DN?$AA?5?$AA0?$AAx?$AA?$CF?$AA0?$AA2?$AAx?$AA?6?$AA?$AA@ 100049e0     hcdlib:cdevice.obj
 0001:00003a1c       ??_C@_1DG@GGHLMIAK@?$AA?7?$AAb?$AAI?$AAn?$AAt?$AAe?$AAr?$AAf?$AAa?$AAc?$AAe?$AAC?$AAl?$AAa?$AAs?$AAs?$AA?5?$AA?$DN?$AA?5?$AA0?$AAx?$AA?$CF?$AA0?$AA2?$AAx?$AA?6?$AA?$AA@ 10004a1c     hcdlib:cdevice.obj
 0001:00003a54       ??_C@_1DC@PJPDJIP@?$AA?7?$AAb?$AAN?$AAu?$AAm?$AAE?$AAn?$AAd?$AAp?$AAo?$AAi?$AAn?$AAt?$AAs?$AA?5?$AA?$DN?$AA?5?$AA0?$AAx?$AA?$CF?$AA0?$AA2?$AAx?$AA?6?$AA?$AA@ 10004a54     hcdlib:cdevice.obj
 0001:00003a88       ??_C@_1DK@MJEAGMPA@?$AA?7?$AAb?$AAA?$AAl?$AAt?$AAe?$AAr?$AAn?$AAa?$AAt?$AAe?$AAS?$AAe?$AAt?$AAt?$AAi?$AAn?$AAg?$AA?5?$AA?$DN?$AA?5?$AA0?$AAx?$AA?$CF?$AA0?$AA2?$AAx?$AA?6?$AA?$AA@ 10004a88     hcdlib:cdevice.obj
 0001:00003ac4       ??_C@_1DI@OBBAOB@?$AA?7?$AAb?$AAI?$AAn?$AAt?$AAe?$AAr?$AAf?$AAa?$AAc?$AAe?$AAN?$AAu?$AAm?$AAb?$AAe?$AAr?$AA?5?$AA?$DN?$AA?5?$AA0?$AAx?$AA?$CF?$AA0?$AA2?$AAx?$AA?6?$AA?$AA@ 10004ac4     hcdlib:cdevice.obj
 0001:00003b00       ??_C@_1EA@POGLFBID@?$AA?$CL?$AAD?$AAu?$AAm?$AAp?$AA?5?$AAU?$AAS?$AAB?$AA_?$AAI?$AAN?$AAT?$AAE?$AAR?$AAF?$AAA?$AAC?$AAE?$AA_?$AAD?$AAE?$AAS?$AAC?$AAR?$AAI?$AAP?$AAT?$AAO?$AAR?$AA?6?$AA?$AA@ 10004b00     hcdlib:cdevice.obj
 0001:00003b40       ??_C@_1DO@PFLJDGOH@?$AA?9?$AAD?$AAu?$AAm?$AAp?$AA?5?$AAU?$AAS?$AAB?$AA_?$AAE?$AAN?$AAD?$AAP?$AAO?$AAI?$AAN?$AAT?$AA_?$AAD?$AAE?$AAS?$AAC?$AAR?$AAI?$AAP?$AAT?$AAO?$AAR?$AA?6?$AA?$AA@ 10004b40     hcdlib:cdevice.obj
 0001:00003b80       ??_C@_1CK@LLJPEFDK@?$AA?7?$AAb?$AAI?$AAn?$AAt?$AAe?$AAr?$AAv?$AAa?$AAl?$AA?5?$AA?$DN?$AA?5?$AA0?$AAx?$AA?$CF?$AA0?$AA2?$AAx?$AA?6?$AA?$AA@ 10004b80     hcdlib:cdevice.obj
 0001:00003bac       ??_C@_1DE@FKEFDAJI@?$AA?7?$AAw?$AAM?$AAa?$AAx?$AAP?$AAa?$AAc?$AAk?$AAe?$AAt?$AAS?$AAi?$AAz?$AAe?$AA?5?$AA?$DN?$AA?5?$AA0?$AAx?$AA?$CF?$AA0?$AA4?$AAx?$AA?6?$AA?$AA@ 10004bac     hcdlib:cdevice.obj
 0001:00003be0       ??_C@_1EI@IBEEEFHL@?$AA?7?$AA?7?$AAb?$AAm?$AAA?$AAt?$AAt?$AAr?$AAi?$AAb?$AAu?$AAt?$AAe?$AAs?$AA?0?$AA?5?$AAe?$AAn?$AAd?$AAp?$AAo?$AAi?$AAn?$AAt?$AA?5?$AAt?$AAy?$AAp?$AAe?$AA?5?$AA?$DN?$AA?5@ 10004be0     hcdlib:cdevice.obj
 0001:00003c28       ??_C@_1EI@JPGNKMBJ@?$AA?7?$AA?7?$AAb?$AAE?$AAn?$AAd?$AAp?$AAo?$AAi?$AAn?$AAt?$AAA?$AAd?$AAd?$AAr?$AAe?$AAs?$AAs?$AA?0?$AA?5?$AAd?$AAi?$AAr?$AAe?$AAc?$AAt?$AAi?$AAo?$AAn?$AA?5?$AA?$DN?$AA?5@ 10004c28     hcdlib:cdevice.obj
 0001:00003c70       ??_C@_17HCEMPBGG@?$AAO?$AAU?$AAT?$AA?$AA@ 10004c70     hcdlib:cdevice.obj
 0001:00003c78       ??_C@_15BNKBCKPG@?$AAI?$AAN?$AA?$AA@ 10004c78     hcdlib:cdevice.obj
 0001:00003c80       ??_C@_1EK@FBMFPAGP@?$AA?7?$AA?7?$AAb?$AAE?$AAn?$AAd?$AAp?$AAo?$AAi?$AAn?$AAt?$AAA?$AAd?$AAd?$AAr?$AAe?$AAs?$AAs?$AA?0?$AA?5?$AAe?$AAn?$AAd?$AAp?$AAo?$AAi?$AAn?$AAt?$AA?5?$AA?$CD?$AA?5?$AA?$DN@ 10004c80     hcdlib:cdevice.obj
 0001:00003ccc       ??_C@_1DI@MCPDKGOI@?$AA?7?$AAb?$AAE?$AAn?$AAd?$AAp?$AAo?$AAi?$AAn?$AAt?$AAA?$AAd?$AAd?$AAr?$AAe?$AAs?$AAs?$AA?5?$AA?$DN?$AA?5?$AA0?$AAx?$AA?$CF?$AA0?$AA2?$AAx?$AA?6?$AA?$AA@ 10004ccc     hcdlib:cdevice.obj
 0001:00003d04       ??_C@_1DO@PHADHLEF@?$AA?$CL?$AAD?$AAu?$AAm?$AAp?$AA?5?$AAU?$AAS?$AAB?$AA_?$AAE?$AAN?$AAD?$AAP?$AAO?$AAI?$AAN?$AAT?$AA_?$AAD?$AAE?$AAS?$AAC?$AAR?$AAI?$AAP?$AAT?$AAO?$AAR?$AA?6?$AA?$AA@ 10004d04     hcdlib:cdevice.obj
 0001:00003d44       ??_C@_1BA@FCLNFMPO@?$AAC?$AAO?$AAN?$AAT?$AAR?$AAO?$AAL?$AA?$AA@ 10004d44     hcdlib:cdevice.obj
 0001:00003d54       ??_C@_1BI@EGKNLPFO@?$AAI?$AAS?$AAO?$AAC?$AAH?$AAR?$AAO?$AAN?$AAO?$AAU?$AAS?$AA?$AA@ 10004d54     hcdlib:cdevice.obj
 0001:00003d6c       ??_C@_19KPHDKIJN@?$AAB?$AAU?$AAL?$AAK?$AA?$AA@ 10004d6c     hcdlib:cdevice.obj
 0001:00003d78       ??_C@_1BE@HPDKKJEA@?$AAI?$AAN?$AAT?$AAE?$AAR?$AAR?$AAU?$AAP?$AAT?$AA?$AA@ 10004d78     hcdlib:cdevice.obj
 0001:00003d90       ??_C@_1EC@KLPCLDKE@?$AA?9?$AAD?$AAu?$AAm?$AAp?$AA?5?$AAe?$AAx?$AAt?$AAe?$AAn?$AAd?$AAe?$AAd?$AA?5?$AAb?$AAy?$AAt?$AAe?$AAs?$AA?0?$AA?5?$AAs?$AAi?$AAz?$AAe?$AA?5?$AA?$DN?$AA?5?$AA?$CF?$AAd?$AA?6@ 10004d90     hcdlib:cdevice.obj
 0001:00003dd4       ??_C@_1DE@GIBFNBPI@?$AA?7?$AAB?$AAy?$AAt?$AAe?$AAs?$AA?5?$AA?$CF?$AAd?$AA?5?$AAt?$AAo?$AA?5?$AA?$CF?$AAd?$AA?5?$AA?$DN?$AA?5?$AA0?$AAx?$AA?$CF?$AA0?$AA8?$AAx?$AA?6?$AA?$AA@ 10004dd4     hcdlib:cdevice.obj
 0001:00003e08       ??_C@_1EC@MEPGFLKH@?$AA?$CL?$AAD?$AAu?$AAm?$AAp?$AA?5?$AAe?$AAx?$AAt?$AAe?$AAn?$AAd?$AAe?$AAd?$AA?5?$AAb?$AAy?$AAt?$AAe?$AAs?$AA?0?$AA?5?$AAs?$AAi?$AAz?$AAe?$AA?5?$AA?$DN?$AA?5?$AA?$CF?$AAd?$AA?6@ 10004e08     hcdlib:cdevice.obj
 0001:00003e4c       ??_C@_1BK@DEBFAAFC@?$AA?9?$AAC?$AAH?$AAu?$AAb?$AA?3?$AA?3?$AAC?$AAH?$AAu?$AAb?$AA?6?$AA?$AA@ 10004e4c     hcdlib:cdevice.obj
 0001:00003e68       ??_C@_1BK@LMLNNOD@?$AA?$CL?$AAC?$AAH?$AAu?$AAb?$AA?3?$AA?3?$AAC?$AAH?$AAu?$AAb?$AA?6?$AA?$AA@ 10004e68     hcdlib:cdevice.obj
 0001:00003e88       ??_7CHub@@6B@              10004e88     hcdlib:cdevice.obj
 0001:00003ee8       ??_C@_1FK@LOPDGCEF@?$AAC?$AAH?$AAu?$AAb?$AA?$CI?$AA?$CF?$AAs?$AA?5?$AAt?$AAi?$AAe?$AAr?$AA?5?$AA?$CF?$AAd?$AA?$CJ?$AA?3?$AA?3?$AA?5?$AAR?$AAe?$AAs?$AAu?$AAm?$AAe?$AAN?$AAo?$AAt?$AAi?$AAf?$AAi?$AAc@ 10004ee8     hcdlib:cdevice.obj
 0001:00003f44       ??_C@_1BM@IFFKMHML@?$AA?9?$AAC?$AAH?$AAu?$AAb?$AA?3?$AA?3?$AA?$HO?$AAC?$AAH?$AAu?$AAb?$AA?6?$AA?$AA@ 10004f44     hcdlib:cdevice.obj
 0001:00003f60       ??_C@_1BM@IAOGMJIF@?$AA?$CL?$AAC?$AAH?$AAu?$AAb?$AA?3?$AA?3?$AA?$HO?$AAC?$AAH?$AAu?$AAb?$AA?6?$AA?$AA@ 10004f60     hcdlib:cdevice.obj
 0001:00003f80       ??_C@_1IO@PBDBAMLH@?$AA?9?$AAC?$AAH?$AAu?$AAb?$AA?$CI?$AA?$CF?$AAs?$AA?5?$AAt?$AAi?$AAe?$AAr?$AA?5?$AA?$CF?$AAd?$AA?$CJ?$AA?3?$AA?3?$AAH?$AAu?$AAb?$AAS?$AAt?$AAa?$AAt?$AAu?$AAs?$AAC?$AAh?$AAa?$AAn@ 10004f80     hcdlib:cdevice.obj
 0001:00004010       ??_C@_1IM@FADCMJIB@?$AAC?$AAH?$AAu?$AAb?$AA?$CI?$AA?$CF?$AAs?$AA?5?$AAt?$AAi?$AAe?$AAr?$AA?5?$AA?$CF?$AAd?$AA?$CJ?$AA?3?$AA?3?$AAH?$AAu?$AAb?$AAS?$AAt?$AAa?$AAt?$AAu?$AAs?$AAC?$AAh?$AAa?$AAn?$AAg@ 10005010     hcdlib:cdevice.obj
 0001:000040a0       ??_C@_1KC@HAEJMCEO@?$AAC?$AAH?$AAu?$AAb?$AA?$CI?$AA?$CF?$AAs?$AA?5?$AAt?$AAi?$AAe?$AAr?$AA?5?$AA?$CF?$AAd?$AA?$CJ?$AA?3?$AA?3?$AAH?$AAu?$AAb?$AAS?$AAt?$AAa?$AAt?$AAu?$AAs?$AAC?$AAh?$AAa?$AAn?$AAg@ 100050a0     hcdlib:cdevice.obj
 0001:00004148       ??_C@_1IM@EDNNMFKN@?$AAC?$AAH?$AAu?$AAb?$AA?$CI?$AA?$CF?$AAs?$AA?5?$AAt?$AAi?$AAe?$AAr?$AA?5?$AA?$CF?$AAd?$AA?$CJ?$AA?3?$AA?3?$AAH?$AAu?$AAb?$AAS?$AAt?$AAa?$AAt?$AAu?$AAs?$AAC?$AAh?$AAa?$AAn?$AAg@ 10005148     hcdlib:cdevice.obj
 0001:000041d8       ??_C@_1PM@EEDHHKA@?$AAC?$AAH?$AAu?$AAb?$AA?$CI?$AA?$CF?$AAs?$AA?5?$AAt?$AAi?$AAe?$AAr?$AA?5?$AA?$CF?$AAd?$AA?$CJ?$AA?3?$AA?3?$AAH?$AAu?$AAb?$AAS?$AAt?$AAa?$AAt?$AAu?$AAs?$AAC?$AAh?$AAa?$AAn?$AAg@ 100051d8     hcdlib:cdevice.obj
 0001:000042d8       ??_C@_1KK@GDICOEKP@?$AAC?$AAH?$AAu?$AAb?$AA?$CI?$AA?$CF?$AAs?$AA?5?$AAt?$AAi?$AAe?$AAr?$AA?5?$AA?$CF?$AAd?$AA?$CJ?$AA?3?$AA?3?$AAH?$AAu?$AAb?$AAS?$AAt?$AAa?$AAt?$AAu?$AAs?$AAC?$AAh?$AAa?$AAn?$AAg@ 100052d8     hcdlib:cdevice.obj
 0001:00004388       ??_C@_1IM@DCJHGIOD@?$AAC?$AAH?$AAu?$AAb?$AA?$CI?$AAt?$AAi?$AAe?$AAr?$AA?5?$AA?$CF?$AAd?$AA?$CJ?$AA?3?$AA?3?$AAH?$AAu?$AAb?$AAS?$AAt?$AAa?$AAt?$AAu?$AAs?$AAC?$AAh?$AAa?$AAn?$AAg?$AAe?$AAT?$AAh@ 10005388     hcdlib:cdevice.obj
 0001:00004418       ??_C@_1JI@MHBMAJKN@?$AAC?$AAH?$AAu?$AAb?$AA?$CI?$AA?$CF?$AAs?$AA?5?$AAt?$AAi?$AAe?$AAr?$AA?5?$AA?$CF?$AAd?$AA?$CJ?$AA?3?$AA?3?$AAH?$AAu?$AAb?$AAS?$AAt?$AAa?$AAt?$AAu?$AAs?$AAC?$AAh?$AAa?$AAn?$AAg@ 10005418     hcdlib:cdevice.obj
 0001:000044b0       ??_C@_1GG@KLDEFPJM@?$AAC?$AAH?$AAu?$AAb?$AA?$CI?$AA?$CF?$AAs?$AA?5?$AAt?$AAi?$AAe?$AAr?$AA?5?$AA?$CF?$AAd?$AA?$CJ?$AA?3?$AA?3?$AA?5?$AAS?$AAu?$AAs?$AAp?$AAe?$AAn?$AAd?$AA?5?$AAD?$AAe?$AAv?$AAi?$AAc@ 100054b0     hcdlib:cdevice.obj
 0001:00004518       ??_C@_19JDHDJODM@?$AAF?$AAA?$AAI?$AAL?$AA?$AA@ 10005518     hcdlib:cdevice.obj
 0001:00004524       ??_C@_1BA@JFDCMKFN@?$AAS?$AAu?$AAc?$AAc?$AAe?$AAs?$AAs?$AA?$AA@ 10005524     hcdlib:cdevice.obj
 0001:00004538       ??_C@_1FE@KFAAOPKI@?$AA?$CL?$AAC?$AAH?$AAu?$AAb?$AA?$CI?$AA?$CF?$AAs?$AA?5?$AAt?$AAi?$AAe?$AAr?$AA?5?$AA?$CF?$AAd?$AA?$CJ?$AA?3?$AA?3?$AAH?$AAu?$AAb?$AAS?$AAt?$AAa?$AAt?$AAu?$AAs?$AAC?$AAh?$AAa?$AAn@ 10005538     hcdlib:cdevice.obj
 0001:0000458c       ??_C@_1DE@MOJKKNGE@?$AA?9?$AAD?$AAu?$AAm?$AAp?$AA?5?$AAU?$AAS?$AAB?$AA_?$AAH?$AAU?$AAB?$AA_?$AAD?$AAE?$AAS?$AAC?$AAR?$AAI?$AAP?$AAT?$AAO?$AAR?$AA?6?$AA?$AA@ 1000558c     hcdlib:cdevice.obj
 0001:000045c0       ??_C@_1FI@FKNCEHEA@?$AA?7?$AAP?$AAo?$AAr?$AAt?$AAP?$AAw?$AAr?$AAC?$AAt?$AAr?$AAl?$AAM?$AAa?$AAs?$AAk?$AA?5?$AAb?$AAi?$AAt?$AAm?$AAa?$AAs?$AAk?$AA?5?$AAb?$AAy?$AAt?$AAe?$AA?5?$AA?$CD?$AA?$CF@ 100055c0     hcdlib:cdevice.obj
 0001:00004618       ??_C@_1FI@MBOKINON@?$AA?7?$AAD?$AAe?$AAv?$AAi?$AAc?$AAe?$AAR?$AAe?$AAm?$AAo?$AAv?$AAa?$AAb?$AAl?$AAe?$AA?5?$AAb?$AAi?$AAt?$AAm?$AAa?$AAs?$AAk?$AA?5?$AAb?$AAy?$AAt?$AAe?$AA?5?$AA?$CD?$AA?$CF@ 10005618     hcdlib:cdevice.obj
 0001:00004670       ??_C@_1DM@OFIEHLKD@?$AA?7?$AAb?$AAH?$AAu?$AAb?$AAC?$AAo?$AAn?$AAt?$AAr?$AAo?$AAl?$AAC?$AAu?$AAr?$AAr?$AAe?$AAn?$AAt?$AA?5?$AA?$DN?$AA?5?$AA0?$AAx?$AA?$CF?$AA0?$AA2?$AAx?$AA?6?$AA?$AA@ 10005670     hcdlib:cdevice.obj
 0001:000046ac       ??_C@_1DO@EHMENOCN@?$AA?7?$AAb?$AAP?$AAo?$AAw?$AAe?$AAr?$AAO?$AAn?$AAT?$AAo?$AAP?$AAo?$AAw?$AAe?$AAr?$AAG?$AAo?$AAo?$AAd?$AA?5?$AA?$DN?$AA?5?$AA0?$AAx?$AA?$CF?$AA0?$AA2?$AAx?$AA?6?$AA?$AA@ 100056ac     hcdlib:cdevice.obj
 0001:000046f0       ??_C@_1GO@KACOCAAE@?$AA?7?$AA?7?$AAw?$AAH?$AAu?$AAb?$AAC?$AAh?$AAa?$AAr?$AAa?$AAc?$AAt?$AAe?$AAr?$AAi?$AAs?$AAt?$AAi?$AAc?$AAs?$AA?0?$AA?5?$AAG?$AAl?$AAo?$AAb?$AAa?$AAl?$AA?5?$AAO?$AAv@ 100056f0     hcdlib:cdevice.obj
 0001:00004760       ??_C@_1HG@HEBEECEK@?$AA?7?$AA?7?$AAw?$AAH?$AAu?$AAb?$AAC?$AAh?$AAa?$AAr?$AAa?$AAc?$AAt?$AAe?$AAr?$AAi?$AAs?$AAt?$AAi?$AAc?$AAs?$AA?0?$AA?5?$AAI?$AAn?$AAd?$AAi?$AAv?$AAi?$AAd?$AAu?$AAa@ 10005760     hcdlib:cdevice.obj
 0001:000047d8       ??_C@_1GG@PLOBHGPD@?$AA?7?$AA?7?$AAw?$AAH?$AAu?$AAb?$AAC?$AAh?$AAa?$AAr?$AAa?$AAc?$AAt?$AAe?$AAr?$AAi?$AAs?$AAt?$AAi?$AAc?$AAs?$AA?0?$AA?5?$AAN?$AAo?$AA?5?$AAO?$AAv?$AAe?$AAr?$AA?5?$AAC@ 100057d8     hcdlib:cdevice.obj
 0001:00004840       ??_C@_1GO@LIJLDPEK@?$AA?7?$AA?7?$AAw?$AAH?$AAu?$AAb?$AAC?$AAh?$AAa?$AAr?$AAa?$AAc?$AAt?$AAe?$AAr?$AAi?$AAs?$AAt?$AAi?$AAc?$AAs?$AA?0?$AA?5?$AAH?$AAu?$AAb?$AA?5?$AA?$CF?$AAs?$AA?5?$AAp?$AAa@ 10005840     hcdlib:cdevice.obj
 0001:000048b0       ??_C@_1O@EDGFPFDG@?$AAI?$AAS?$AA?5?$AAN?$AAO?$AAT?$AA?$AA@ 100058b0     hcdlib:cdevice.obj
 0001:000048c0       ??_C@_15LPNCKFLE@?$AAI?$AAS?$AA?$AA@ 100058c0     hcdlib:cdevice.obj
 0001:000048c8       ??_C@_1GI@CCLJDJKA@?$AA?7?$AA?7?$AAw?$AAH?$AAu?$AAb?$AAC?$AAh?$AAa?$AAr?$AAa?$AAc?$AAt?$AAe?$AAr?$AAi?$AAs?$AAt?$AAi?$AAc?$AAs?$AA?0?$AA?5?$AAG?$AAa?$AAn?$AAg?$AAe?$AAd?$AA?5?$AAP?$AAo@ 100058c8     hcdlib:cdevice.obj
 0001:00004930       ??_C@_1HA@PJFBNNAO@?$AA?7?$AA?7?$AAw?$AAH?$AAu?$AAb?$AAC?$AAh?$AAa?$AAr?$AAa?$AAc?$AAt?$AAe?$AAr?$AAi?$AAs?$AAt?$AAi?$AAc?$AAs?$AA?0?$AA?5?$AAI?$AAn?$AAd?$AAi?$AAv?$AAi?$AAd?$AAu?$AAa@ 10005930     hcdlib:cdevice.obj
 0001:000049a0       ??_C@_1GA@PJHGAPML@?$AA?7?$AA?7?$AAw?$AAH?$AAu?$AAb?$AAC?$AAh?$AAa?$AAr?$AAa?$AAc?$AAt?$AAe?$AAr?$AAi?$AAs?$AAt?$AAi?$AAc?$AAs?$AA?0?$AA?5?$AAN?$AAo?$AA?5?$AAP?$AAo?$AAr?$AAt?$AA?5?$AAP@ 100059a0     hcdlib:cdevice.obj
 0001:00004a00       ??_C@_1DO@IFBHLDNF@?$AA?7?$AAw?$AAH?$AAu?$AAb?$AAC?$AAh?$AAa?$AAr?$AAa?$AAc?$AAt?$AAe?$AAr?$AAi?$AAs?$AAt?$AAi?$AAc?$AAs?$AA?5?$AA?$DN?$AA?5?$AA0?$AAx?$AA?$CF?$AA0?$AA4?$AAx?$AA?6?$AA?$AA@ 10005a00     hcdlib:cdevice.obj
 0001:00004a40       ??_C@_1DE@FPJADFAL@?$AA?7?$AAb?$AAN?$AAu?$AAm?$AAb?$AAe?$AAr?$AAO?$AAf?$AAP?$AAo?$AAr?$AAt?$AAs?$AA?5?$AA?$DN?$AA?5?$AA0?$AAx?$AA?$CF?$AA0?$AA2?$AAx?$AA?6?$AA?$AA@ 10005a40     hcdlib:cdevice.obj
 0001:00004a74       ??_C@_1DK@CKNMLPCA@?$AA?7?$AAb?$AAD?$AAe?$AAs?$AAc?$AAr?$AAi?$AAp?$AAt?$AAo?$AAr?$AAL?$AAe?$AAn?$AAg?$AAt?$AAh?$AA?5?$AA?$DN?$AA?5?$AA0?$AAx?$AA?$CF?$AA0?$AA2?$AAx?$AA?6?$AA?$AA@ 10005a74     hcdlib:cdevice.obj
 0001:00004ab0       ??_C@_1DE@GBEBKDAL@?$AA?$CL?$AAD?$AAu?$AAm?$AAp?$AA?5?$AAU?$AAS?$AAB?$AA_?$AAH?$AAU?$AAB?$AA_?$AAD?$AAE?$AAS?$AAC?$AAR?$AAI?$AAP?$AAT?$AAO?$AAR?$AA?6?$AA?$AA@ 10005ab0     hcdlib:cdevice.obj
 0001:00004ae8       ??_C@_1JK@CIKNMDOB@?$AA?9?$AAC?$AAH?$AAu?$AAb?$AA?$CI?$AA?$CF?$AAs?$AA?5?$AAt?$AAi?$AAe?$AAr?$AA?5?$AA?$CF?$AAd?$AA?$CJ?$AA?3?$AA?3?$AAA?$AAt?$AAt?$AAa?$AAc?$AAh?$AAD?$AAe?$AAv?$AAi?$AAc?$AAe?$AA?5@ 10005ae8     hcdlib:cdevice.obj
 0001:00004b88       ??_C@_1JM@PDNHGEJD@?$AAC?$AAH?$AAu?$AAb?$AA?$CI?$AA?$CF?$AAs?$AA?5?$AAt?$AAi?$AAe?$AAr?$AA?5?$AA?$CF?$AAd?$AA?$CJ?$AA?3?$AA?3?$AAA?$AAt?$AAt?$AAa?$AAc?$AAh?$AAD?$AAe?$AAv?$AAi?$AAc?$AAe?$AA?5?$AA?9@ 10005b88     hcdlib:cdevice.obj
 0001:00004c28       ??_C@_1II@HDIFDMNL@?$AA?$CB?$AAU?$AAS?$AAB?$AA?5?$AAw?$AAa?$AAr?$AAn?$AAi?$AAn?$AAg?$AA?3?$AA?5?$AAc?$AAa?$AAn?$AAn?$AAo?$AAt?$AA?5?$AAa?$AAt?$AAt?$AAa?$AAc?$AAh?$AA?5?$AAh?$AAi?$AAg?$AAh@ 10005c28     hcdlib:cdevice.obj
 0001:00004cb0       ??_C@_1HE@DLPCNLDH@?$AA?$CB?$AAC?$AAH?$AAu?$AAb?$AA?3?$AA?3?$AAA?$AAt?$AAt?$AAa?$AAc?$AAh?$AAD?$AAe?$AAv?$AAi?$AAc?$AAe?$AA?5?$AAw?$AAa?$AAr?$AAn?$AAi?$AAn?$AAg?$AA?3?$AA?5?$AAi?$AAn?$AAv@ 10005cb0     hcdlib:cdevice.obj
 0001:00004d28       ??_C@_1IK@GIJBMIGK@?$AAC?$AAH?$AAu?$AAb?$AA?$CI?$AA?$CF?$AAs?$AA?5?$AAt?$AAi?$AAe?$AAr?$AA?5?$AA?$CF?$AAd?$AA?$CJ?$AA?3?$AA?3?$AAA?$AAt?$AAt?$AAa?$AAc?$AAh?$AAD?$AAe?$AAv?$AAi?$AAc?$AAe?$AA?5?$AA?9@ 10005d28     hcdlib:cdevice.obj
 0001:00004db8       ??_C@_1IA@JDFOHPNL@?$AAC?$AAH?$AAu?$AAb?$AA?$CI?$AA?$CF?$AAs?$AA?5?$AAt?$AAi?$AAe?$AAr?$AA?5?$AA?$CF?$AAd?$AA?$CJ?$AA?3?$AA?3?$AAA?$AAt?$AAt?$AAa?$AAc?$AAh?$AAD?$AAe?$AAv?$AAi?$AAc?$AAe?$AA?5?$AA?9@ 10005db8     hcdlib:cdevice.obj
 0001:00004e38       ??_C@_1HK@HGAGGCPB@?$AAU?$AAS?$AAB?$AA?5?$AAs?$AAp?$AAe?$AAc?$AAi?$AAf?$AAi?$AAc?$AAa?$AAt?$AAi?$AAo?$AAn?$AA?5?$AAd?$AAo?$AAe?$AAs?$AA?5?$AAn?$AAo?$AAt?$AA?5?$AAa?$AAl?$AAl?$AAo?$AAw@ 10005e38     hcdlib:cdevice.obj
 0001:00004eb8       ??_C@_1OG@CLMEBJJO@?$AAC?$AAH?$AAu?$AAb?$AA?$CI?$AA?$CF?$AAs?$AA?5?$AAt?$AAi?$AAe?$AAr?$AA?5?$AA?$CF?$AAd?$AA?$CJ?$AA?3?$AA?3?$AAA?$AAt?$AAt?$AAa?$AAc?$AAh?$AAD?$AAe?$AAv?$AAi?$AAc?$AAe?$AA?5?$AA?9@ 10005eb8     hcdlib:cdevice.obj
 0001:00004fa0       ??_C@_1GK@PECGIBIC@?$AAC?$AAH?$AAu?$AAb?$AA?$CI?$AA?$CF?$AAs?$AA?5?$AAt?$AAi?$AAe?$AAr?$AA?5?$AA?$CF?$AAd?$AA?$CJ?$AA?3?$AA?3?$AAA?$AAt?$AAt?$AAa?$AAc?$AAh?$AAD?$AAe?$AAv?$AAi?$AAc?$AAe?$AA?5?$AA?9@ 10005fa0     hcdlib:cdevice.obj
 0001:00005010       ??_C@_1KE@DPIGKHEM@?$AAC?$AAH?$AAu?$AAb?$AA?$CI?$AA?$CF?$AAs?$AA?5?$AAt?$AAi?$AAe?$AAr?$AA?5?$AA?$CF?$AAd?$AA?$CJ?$AA?3?$AA?3?$AAA?$AAt?$AAt?$AAa?$AAc?$AAh?$AAD?$AAe?$AAv?$AAi?$AAc?$AAe?$AA?5?$AA?9@ 10006010     hcdlib:cdevice.obj
 0001:000050b8       ??_C@_1JA@MNHJHALK@?$AAC?$AAH?$AAu?$AAb?$AA?$CI?$AA?$CF?$AAs?$AA?5?$AAt?$AAi?$AAe?$AAr?$AA?5?$AA?$CF?$AAd?$AA?$CJ?$AA?3?$AA?3?$AAA?$AAt?$AAt?$AAa?$AAc?$AAh?$AAD?$AAe?$AAv?$AAi?$AAc?$AAe?$AA?5?$AA?9@ 100060b8     hcdlib:cdevice.obj
 0001:00005148       ??_C@_1KE@HOICJLME@?$AAC?$AAH?$AAu?$AAb?$AA?$CI?$AA?$CF?$AAs?$AA?5?$AAt?$AAi?$AAe?$AAr?$AA?5?$AA?$CF?$AAd?$AA?$CJ?$AA?3?$AA?3?$AAA?$AAt?$AAt?$AAa?$AAc?$AAh?$AAD?$AAe?$AAv?$AAi?$AAc?$AAe?$AA?5?$AA?9@ 10006148     hcdlib:cdevice.obj
 0001:000051f0       ??_C@_1HK@JHNJCLMB@?$AAC?$AAH?$AAu?$AAb?$AA?$CI?$AA?$CF?$AAs?$AA?5?$AAt?$AAi?$AAe?$AAr?$AA?5?$AA?$CF?$AAd?$AA?$CJ?$AA?3?$AA?3?$AAA?$AAt?$AAt?$AAa?$AAc?$AAh?$AAD?$AAe?$AAv?$AAi?$AAc?$AAe?$AA?5?$AA?9@ 100061f0     hcdlib:cdevice.obj
 0001:0000526c       ??_C@_1BA@EOKOFGEP@?$AAI?$AAn?$AAv?$AAa?$AAl?$AAi?$AAd?$AA?$AA@ 1000626c     hcdlib:cdevice.obj
 0001:00005280       ??_C@_1IA@KFCHKPBM@?$AAC?$AAH?$AAu?$AAb?$AA?$CI?$AA?$CF?$AAs?$AA?5?$AAt?$AAi?$AAe?$AAr?$AA?5?$AA?$CF?$AAd?$AA?$CJ?$AA?3?$AA?3?$AAA?$AAt?$AAt?$AAa?$AAc?$AAh?$AAD?$AAe?$AAv?$AAi?$AAc?$AAe?$AA?5?$AA?9@ 10006280     hcdlib:cdevice.obj
 0001:00005300       ??_C@_1HO@NDPINIP@?$AA?$CL?$AAC?$AAH?$AAu?$AAb?$AA?$CI?$AA?$CF?$AAs?$AA?5?$AAt?$AAi?$AAe?$AAr?$AA?5?$AA?$CF?$AAd?$AA?$CJ?$AA?3?$AA?3?$AAA?$AAt?$AAt?$AAa?$AAc?$AAh?$AAD?$AAe?$AAv?$AAi?$AAc?$AAe?$AA?5@ 10006300     hcdlib:cdevice.obj
 0001:00005380       ??_C@_1MC@LPCKHMID@?$AA?9?$AAC?$AAH?$AAu?$AAb?$AA?$CI?$AA?$CF?$AAs?$AA?5?$AAt?$AAi?$AAe?$AAr?$AA?5?$AA?$CF?$AAd?$AA?$CJ?$AA?3?$AA?3?$AAG?$AAe?$AAt?$AAD?$AAe?$AAs?$AAc?$AAr?$AAi?$AAp?$AAt?$AAo?$AAr@ 10006380     hcdlib:cdevice.obj
 0001:00005448       ??_C@_1GO@EDOMJKIM@?$AAC?$AAH?$AAu?$AAb?$AA?3?$AA?3?$AAG?$AAe?$AAt?$AAD?$AAe?$AAs?$AAc?$AAr?$AAi?$AAp?$AAt?$AAo?$AAr?$AA?5?$AA?9?$AA?5?$AAf?$AAo?$AAr?$AAc?$AAi?$AAn?$AAg?$AA?5?$AAd?$AAe@ 10006448     hcdlib:cdevice.obj
 0001:000054b8       ??_C@_1KG@BKBBKGNO@?$AA?$CL?$AAC?$AAH?$AAu?$AAb?$AA?$CI?$AA?$CF?$AAs?$AA?5?$AAt?$AAi?$AAe?$AAr?$AA?5?$AA?$CF?$AAd?$AA?$CJ?$AA?3?$AA?3?$AAG?$AAe?$AAt?$AAD?$AAe?$AAs?$AAc?$AAr?$AAi?$AAp?$AAt?$AAo?$AAr@ 100064b8     hcdlib:cdevice.obj
 0001:00005560       ??_C@_1EK@MGLFNGOH@?$AA?9?$AAC?$AAH?$AAu?$AAb?$AA?3?$AA?3?$AAD?$AAe?$AAt?$AAa?$AAc?$AAh?$AAD?$AAo?$AAw?$AAn?$AAs?$AAt?$AAr?$AAe?$AAa?$AAm?$AAD?$AAe?$AAv?$AAi?$AAc?$AAe?$AAT?$AAh?$AAr@ 10006560     hcdlib:cdevice.obj
 0001:000055b0       ??_C@_1EK@PIIGJLPO@?$AA?$CL?$AAC?$AAH?$AAu?$AAb?$AA?3?$AA?3?$AAD?$AAe?$AAt?$AAa?$AAc?$AAh?$AAD?$AAo?$AAw?$AAn?$AAs?$AAt?$AAr?$AAe?$AAa?$AAm?$AAD?$AAe?$AAv?$AAi?$AAc?$AAe?$AAT?$AAh?$AAr@ 100065b0     hcdlib:cdevice.obj
 0001:00005600       ??_C@_1FK@JCHPMIB@?$AA?9?$AAC?$AAH?$AAu?$AAb?$AA?$CI?$AA?$CF?$AAs?$AA?5?$AAt?$AAi?$AAe?$AAr?$AA?5?$AA?$CF?$AAd?$AA?$CJ?$AA?3?$AA?3?$AAD?$AAe?$AAt?$AAa?$AAc?$AAh?$AAD?$AAe?$AAv?$AAi?$AAc?$AAe?$AA?5@ 10006600     hcdlib:cdevice.obj
 0001:00005660       ??_C@_1JO@KEOKNAIJ@?$AAC?$AAH?$AAu?$AAb?$AA?$CI?$AA?$CF?$AAs?$AA?5?$AAt?$AAi?$AAe?$AAr?$AA?5?$AA?$CF?$AAd?$AA?$CJ?$AA?3?$AA?3?$AAD?$AAe?$AAt?$AAa?$AAc?$AAh?$AAD?$AAe?$AAv?$AAi?$AAc?$AAe?$AA?5?$AA?9@ 10006660     hcdlib:cdevice.obj
 0001:00005700       ??_C@_1KA@GJGBLDNJ@?$AAC?$AAH?$AAu?$AAb?$AA?$CI?$AA?$CF?$AAs?$AA?5?$AAt?$AAi?$AAe?$AAr?$AA?5?$AA?$CF?$AAd?$AA?$CJ?$AA?3?$AA?3?$AAD?$AAe?$AAt?$AAa?$AAc?$AAh?$AAD?$AAe?$AAv?$AAi?$AAc?$AAe?$AA?5?$AA?9@ 10006700     hcdlib:cdevice.obj
 0001:000057a0       ??_C@_1LE@IKHCBIJE@?$AAC?$AAH?$AAu?$AAb?$AA?$CI?$AA?$CF?$AAs?$AA?5?$AAt?$AAi?$AAe?$AAr?$AA?5?$AA?$CF?$AAd?$AA?$CJ?$AA?3?$AA?3?$AAD?$AAe?$AAt?$AAa?$AAc?$AAh?$AAD?$AAe?$AAv?$AAi?$AAc?$AAe?$AA?5?$AA?9@ 100067a0     hcdlib:cdevice.obj
 0001:00005858       ??_C@_1FK@COKGEFEA@?$AA?$CL?$AAC?$AAH?$AAu?$AAb?$AA?$CI?$AA?$CF?$AAs?$AA?5?$AAt?$AAi?$AAe?$AAr?$AA?5?$AA?$CF?$AAd?$AA?$CJ?$AA?3?$AA?3?$AAD?$AAe?$AAt?$AAa?$AAc?$AAh?$AAD?$AAe?$AAv?$AAi?$AAc?$AAe?$AA?5@ 10006858     hcdlib:cdevice.obj
 0001:000058b8       ??_C@_1HG@LCNIGFBM@?$AA?9?$AAC?$AAH?$AAu?$AAb?$AA?$CI?$AA?$CF?$AAs?$AA?5?$AAt?$AAi?$AAe?$AAr?$AA?5?$AA?$CF?$AAd?$AA?$CJ?$AA?3?$AA?3?$AAA?$AAl?$AAl?$AAo?$AAc?$AAa?$AAt?$AAe?$AAD?$AAe?$AAv?$AAi?$AAc@ 100068b8     hcdlib:cdevice.obj
 0001:00005930       ??_C@_1GI@EFDHBKMO@?$AAC?$AAH?$AAu?$AAb?$AA?$CI?$AA?$CF?$AAs?$AA?5?$AAt?$AAi?$AAe?$AAr?$AA?5?$AA?$CF?$AAd?$AA?$CJ?$AA?3?$AA?3?$AAA?$AAl?$AAl?$AAo?$AAc?$AAa?$AAt?$AAe?$AAD?$AAe?$AAv?$AAi?$AAc?$AAe@ 10006930     hcdlib:cdevice.obj
 0001:00005998       ??_C@_1JG@OMFLLIOP@?$AAC?$AAH?$AAu?$AAb?$AA?$CI?$AA?$CF?$AAs?$AA?5?$AAt?$AAi?$AAe?$AAr?$AA?5?$AA?$CF?$AAd?$AA?$CJ?$AA?3?$AA?3?$AAA?$AAl?$AAl?$AAo?$AAc?$AAa?$AAt?$AAe?$AAD?$AAe?$AAv?$AAi?$AAc?$AAe@ 10006998     hcdlib:cdevice.obj
 0001:00005a30       ??_C@_1FA@JGCFOODP@?$AA?$CL?$AAC?$AAH?$AAu?$AAb?$AA?$CI?$AA?$CF?$AAs?$AA?5?$AAt?$AAi?$AAe?$AAr?$AA?5?$AA?$CF?$AAd?$AA?$CJ?$AA?3?$AA?3?$AAA?$AAl?$AAl?$AAo?$AAc?$AAa?$AAt?$AAe?$AAD?$AAe?$AAv?$AAi?$AAc@ 10006a30     hcdlib:cdevice.obj
 0001:00005a80       ??_C@_1EC@CBKBJNBG@?$AA?9?$AAC?$AAH?$AAu?$AAb?$AA?$CI?$AA?$CF?$AAs?$AA?5?$AAt?$AAi?$AAe?$AAr?$AA?5?$AA?$CF?$AAd?$AA?$CJ?$AA?3?$AA?3?$AAH?$AAa?$AAn?$AAd?$AAl?$AAe?$AAD?$AAe?$AAt?$AAa?$AAc?$AAh?$AA?6@ 10006a80     hcdlib:cdevice.obj
 0001:00005ac8       ??_C@_1IO@KODAFMJG@?$AAC?$AAH?$AAu?$AAb?$AA?$CI?$AA?$CF?$AAs?$AA?5?$AAt?$AAi?$AAe?$AAr?$AA?5?$AA?$CF?$AAd?$AA?$CJ?$AA?3?$AA?3?$AAH?$AAa?$AAn?$AAd?$AAl?$AAe?$AAD?$AAe?$AAt?$AAa?$AAc?$AAh?$AA?5?$AA?9@ 10006ac8     hcdlib:cdevice.obj
 0001:00005b58       ??_C@_1KO@JIKLHMFD@?$AAC?$AAH?$AAu?$AAb?$AA?$CI?$AA?$CF?$AAs?$AA?5?$AAt?$AAi?$AAe?$AAr?$AA?5?$AA?$CF?$AAd?$AA?$CJ?$AA?3?$AA?3?$AAH?$AAa?$AAn?$AAd?$AAl?$AAe?$AAD?$AAe?$AAt?$AAa?$AAc?$AAh?$AA?5?$AA?9@ 10006b58     hcdlib:cdevice.obj
 0001:00005c08       ??_C@_1EC@EOKFHFBF@?$AA?$CL?$AAC?$AAH?$AAu?$AAb?$AA?$CI?$AA?$CF?$AAs?$AA?5?$AAt?$AAi?$AAe?$AAr?$AA?5?$AA?$CF?$AAd?$AA?$CJ?$AA?3?$AA?3?$AAH?$AAa?$AAn?$AAd?$AAl?$AAe?$AAD?$AAe?$AAt?$AAa?$AAc?$AAh?$AA?6@ 10006c08     hcdlib:cdevice.obj
 0001:00005c50       ??_C@_1JI@CNCNJHBH@?$AA?9?$AAC?$AAH?$AAu?$AAb?$AA?$CI?$AA?$CF?$AAs?$AA?5?$AAt?$AAi?$AAe?$AAr?$AA?5?$AA?$CF?$AAd?$AA?$CJ?$AA?3?$AA?3?$AAO?$AAp?$AAe?$AAn?$AAP?$AAi?$AAp?$AAe?$AA?5?$AA?9?$AA?5?$AAa?$AAd@ 10006c50     hcdlib:cdevice.obj
 0001:00005ce8       ??_C@_1FI@NOMFGBIN@?$AA?$CL?$AAC?$AAH?$AAu?$AAb?$AA?$CI?$AA?$CF?$AAs?$AA?5?$AAt?$AAi?$AAe?$AAr?$AA?5?$AA?$CF?$AAd?$AA?$CJ?$AA?3?$AA?3?$AAO?$AAp?$AAe?$AAn?$AAP?$AAi?$AAp?$AAe?$AA?5?$AA?9?$AA?5?$AAa?$AAd@ 10006ce8     hcdlib:cdevice.obj
 0001:00005d40       ??_C@_1LK@NCLHEMJN@?$AA?9?$AAC?$AAH?$AAu?$AAb?$AA?$CI?$AA?$CF?$AAs?$AA?5?$AAt?$AAi?$AAe?$AAr?$AA?5?$AA?$CF?$AAd?$AA?$CJ?$AA?3?$AA?3?$AAC?$AAl?$AAo?$AAs?$AAe?$AAP?$AAi?$AAp?$AAe?$AA?5?$AA?9?$AA?5?$AAa@ 10006d40     hcdlib:cdevice.obj
 0001:00005e00       ??_C@_1HK@EABKNNKI@?$AA?$CL?$AAC?$AAH?$AAu?$AAb?$AA?$CI?$AA?$CF?$AAs?$AA?5?$AAt?$AAi?$AAe?$AAr?$AA?5?$AA?$CF?$AAd?$AA?$CJ?$AA?3?$AA?3?$AAC?$AAl?$AAo?$AAs?$AAe?$AAP?$AAi?$AAp?$AAe?$AA?5?$AA?9?$AA?5?$AAa@ 10006e00     hcdlib:cdevice.obj
 0001:00005e80       ??_C@_1LE@GMNJJOHD@?$AA?9?$AAC?$AAH?$AAu?$AAb?$AA?$CI?$AA?$CF?$AAs?$AA?5?$AAt?$AAi?$AAe?$AAr?$AA?5?$AA?$CF?$AAd?$AA?$CJ?$AA?3?$AA?3?$AAI?$AAs?$AAs?$AAu?$AAe?$AAT?$AAr?$AAa?$AAn?$AAs?$AAf?$AAe?$AAr@ 10006e80     hcdlib:cdevice.obj
 0001:00005f38       ??_C@_1HG@PCAFGNMO@?$AA?$CL?$AAC?$AAH?$AAu?$AAb?$AA?$CI?$AA?$CF?$AAs?$AA?5?$AAt?$AAi?$AAe?$AAr?$AA?5?$AA?$CF?$AAd?$AA?$CJ?$AA?3?$AA?3?$AAI?$AAs?$AAs?$AAu?$AAe?$AAT?$AAr?$AAa?$AAn?$AAs?$AAf?$AAe?$AAr@ 10006f38     hcdlib:cdevice.obj
 0001:00005fb0       ??_C@_1MC@IKDLAGGE@?$AA?9?$AAC?$AAH?$AAu?$AAb?$AA?$CI?$AA?$CF?$AAs?$AA?5?$AAt?$AAi?$AAe?$AAr?$AA?5?$AA?$CF?$AAd?$AA?$CJ?$AA?3?$AA?3?$AAA?$AAb?$AAo?$AAr?$AAt?$AAT?$AAr?$AAa?$AAn?$AAs?$AAf?$AAe?$AAr@ 10006fb0     hcdlib:cdevice.obj
 0001:00006078       ??_C@_1IC@DBAPCDPC@?$AA?$CL?$AAC?$AAH?$AAu?$AAb?$AA?$CI?$AA?$CF?$AAs?$AA?5?$AAt?$AAi?$AAe?$AAr?$AA?5?$AA?$CF?$AAd?$AA?$CJ?$AA?3?$AA?3?$AAA?$AAb?$AAo?$AAr?$AAt?$AAT?$AAr?$AAa?$AAn?$AAs?$AAf?$AAe?$AAr@ 10007078     hcdlib:cdevice.obj
 0001:00006100       ??_C@_1LG@INJELGGL@?$AA?9?$AAC?$AAH?$AAu?$AAb?$AA?$CI?$AA?$CF?$AAs?$AA?5?$AAt?$AAi?$AAe?$AAr?$AA?5?$AA?$CF?$AAd?$AA?$CJ?$AA?3?$AA?3?$AAI?$AAs?$AAP?$AAi?$AAp?$AAe?$AAH?$AAa?$AAl?$AAt?$AAe?$AAd?$AA?5@ 10007100     hcdlib:cdevice.obj
 0001:000061b8       ??_C@_1IA@PMECJFMI@?$AA?$CL?$AAC?$AAH?$AAu?$AAb?$AA?$CI?$AA?$CF?$AAs?$AA?5?$AAt?$AAi?$AAe?$AAr?$AA?5?$AA?$CF?$AAd?$AA?$CJ?$AA?3?$AA?3?$AAI?$AAs?$AAP?$AAi?$AAp?$AAe?$AAH?$AAa?$AAl?$AAt?$AAe?$AAd?$AA?5@ 100071b8     hcdlib:cdevice.obj
 0001:00006238       ??_C@_1LK@IPKBCNF@?$AA?9?$AAC?$AAH?$AAu?$AAb?$AA?$CI?$AA?$CF?$AAs?$AA?5?$AAt?$AAi?$AAe?$AAr?$AA?5?$AA?$CF?$AAd?$AA?$CJ?$AA?3?$AA?3?$AAR?$AAe?$AAs?$AAe?$AAt?$AAP?$AAi?$AAp?$AAe?$AA?5?$AA?9?$AA?5?$AAa@ 10007238     hcdlib:cdevice.obj
 0001:000062f8       ??_C@_1HK@LLMABGAC@?$AA?$CL?$AAC?$AAH?$AAu?$AAb?$AA?$CI?$AA?$CF?$AAs?$AA?5?$AAt?$AAi?$AAe?$AAr?$AA?5?$AA?$CF?$AAd?$AA?$CJ?$AA?3?$AA?3?$AAR?$AAe?$AAs?$AAe?$AAt?$AAP?$AAi?$AAp?$AAe?$AA?5?$AA?9?$AA?5?$AAa@ 100072f8     hcdlib:cdevice.obj
 0001:00006378       ??_C@_1KC@LNNECAFE@?$AA?9?$AAC?$AAH?$AAu?$AAb?$AA?$CI?$AA?$CF?$AAs?$AA?5?$AAt?$AAi?$AAe?$AAr?$AA?5?$AA?$CF?$AAd?$AA?$CJ?$AA?3?$AA?3?$AAD?$AAi?$AAs?$AAa?$AAb?$AAl?$AAe?$AAD?$AAe?$AAv?$AAi?$AAc?$AAe@ 10007378     hcdlib:cdevice.obj
 0001:00006420       ??_C@_1IC@KFLGBCAH@?$AA?$CL?$AAC?$AAH?$AAu?$AAb?$AA?$CI?$AA?$CF?$AAs?$AA?5?$AAt?$AAi?$AAe?$AAr?$AA?5?$AA?$CF?$AAd?$AA?$CJ?$AA?3?$AA?3?$AAD?$AAi?$AAs?$AAa?$AAb?$AAl?$AAe?$AAD?$AAe?$AAv?$AAi?$AAc?$AAe@ 10007420     hcdlib:cdevice.obj
 0001:000064a8       ??_C@_1LE@MMIJLBC@?$AA?9?$AAC?$AAH?$AAu?$AAb?$AA?$CI?$AA?$CF?$AAs?$AA?5?$AAt?$AAi?$AAe?$AAr?$AA?5?$AA?$CF?$AAd?$AA?$CJ?$AA?3?$AA?3?$AAD?$AAi?$AAs?$AAa?$AAb?$AAl?$AAe?$AAO?$AAf?$AAf?$AAS?$AAt?$AAr@ 100074a8     hcdlib:cdevice.obj
 0001:00006560       ??_C@_1JE@OBFLIFJ@?$AA?$CL?$AAC?$AAH?$AAu?$AAb?$AA?$CI?$AA?$CF?$AAs?$AA?5?$AAt?$AAi?$AAe?$AAr?$AA?5?$AA?$CF?$AAd?$AA?$CJ?$AA?3?$AA?3?$AAD?$AAi?$AAs?$AAa?$AAb?$AAl?$AAe?$AAO?$AAf?$AAf?$AAS?$AAt?$AAr@ 10007560     hcdlib:cdevice.obj
 0001:000065f4       ??_C@_1CK@CJNCFJE@?$AA?9?$AAC?$AAR?$AAo?$AAo?$AAt?$AAH?$AAu?$AAb?$AA?3?$AA?3?$AAC?$AAR?$AAo?$AAo?$AAt?$AAH?$AAu?$AAb?$AA?6?$AA?$AA@ 100075f4     hcdlib:cdevice.obj
 0001:00006620       ??_C@_1CK@HCOKDDHC@?$AA?$CL?$AAC?$AAR?$AAo?$AAo?$AAt?$AAH?$AAu?$AAb?$AA?3?$AA?3?$AAC?$AAR?$AAo?$AAo?$AAt?$AAH?$AAu?$AAb?$AA?6?$AA?$AA@ 10007620     hcdlib:cdevice.obj
 0001:00006650       ??_7CRootHub@@6B@          10007650     hcdlib:cdevice.obj
 0001:000066b0       ??_C@_19LFKAPJKP@?$AAR?$AAo?$AAo?$AAt?$AA?$AA@ 100076b0     hcdlib:cdevice.obj
 0001:000066bc       ??_C@_1CM@NAKEALML@?$AA?9?$AAC?$AAR?$AAo?$AAo?$AAt?$AAH?$AAu?$AAb?$AA?3?$AA?3?$AA?$HO?$AAC?$AAR?$AAo?$AAo?$AAt?$AAH?$AAu?$AAb?$AA?6?$AA?$AA@ 100076bc     hcdlib:cdevice.obj
 0001:000066e8       ??_C@_1CM@CMFEJKIH@?$AA?$CL?$AAC?$AAR?$AAo?$AAo?$AAt?$AAH?$AAu?$AAb?$AA?3?$AA?3?$AA?$HO?$AAC?$AAR?$AAo?$AAo?$AAt?$AAH?$AAu?$AAb?$AA?6?$AA?$AA@ 100076e8     hcdlib:cdevice.obj
 0001:00006718       ??_C@_1GK@HHCFCMBC@?$AA?9?$AAC?$AAR?$AAo?$AAo?$AAt?$AAH?$AAu?$AAb?$AA?3?$AA?3?$AAE?$AAn?$AAt?$AAe?$AAr?$AAO?$AAp?$AAe?$AAr?$AAa?$AAt?$AAi?$AAo?$AAn?$AAa?$AAl?$AAS?$AAt?$AAa?$AAt?$AAe@ 10007718     hcdlib:cdevice.obj
 0001:00006788       ??_C@_1EE@PDDHPKNI@?$AA?$CL?$AAC?$AAR?$AAo?$AAo?$AAt?$AAH?$AAu?$AAb?$AA?3?$AA?3?$AAE?$AAn?$AAt?$AAe?$AAr?$AAO?$AAp?$AAe?$AAr?$AAa?$AAt?$AAi?$AAo?$AAn?$AAa?$AAl?$AAS?$AAt?$AAa?$AAt?$AAe@ 10007788     hcdlib:cdevice.obj
 0001:000067cc       ??_C@_1DK@ICPLBLCC@?$AA?9?$AAC?$AAR?$AAo?$AAo?$AAt?$AAH?$AAu?$AAb?$AA?3?$AA?3?$AAP?$AAo?$AAw?$AAe?$AAr?$AAA?$AAl?$AAl?$AAH?$AAu?$AAb?$AAP?$AAo?$AAr?$AAt?$AAs?$AA?6?$AA?$AA@ 100077cc     hcdlib:cdevice.obj
 0001:00006808       ??_C@_1DK@OHBIDMAJ@?$AA?$CL?$AAC?$AAR?$AAo?$AAo?$AAt?$AAH?$AAu?$AAb?$AA?3?$AA?3?$AAP?$AAo?$AAw?$AAe?$AAr?$AAA?$AAl?$AAl?$AAH?$AAu?$AAb?$AAP?$AAo?$AAr?$AAt?$AAs?$AA?6?$AA?$AA@ 10007808     hcdlib:cdevice.obj
 0001:00006848       ??_C@_1HO@ELFNBANG@?$AA?9?$AAC?$AAR?$AAo?$AAo?$AAt?$AAH?$AAu?$AAb?$AA?3?$AA?3?$AAW?$AAa?$AAi?$AAt?$AAF?$AAo?$AAr?$AAP?$AAo?$AAr?$AAt?$AAS?$AAt?$AAa?$AAt?$AAu?$AAs?$AAC?$AAh?$AAa?$AAn@ 10007848     hcdlib:cdevice.obj
 0001:000068c8       ??_C@_1KE@EONMBKOM@?$AAC?$AAR?$AAo?$AAo?$AAt?$AAH?$AAu?$AAb?$AA?3?$AA?3?$AAW?$AAa?$AAi?$AAt?$AAF?$AAo?$AAr?$AAP?$AAo?$AAr?$AAt?$AAS?$AAt?$AAa?$AAt?$AAu?$AAs?$AAC?$AAh?$AAa?$AAn?$AAg@ 100078c8     hcdlib:cdevice.obj
 0001:00006970       ??_C@_1EI@OICCPODJ@?$AA?$CL?$AAC?$AAR?$AAo?$AAo?$AAt?$AAH?$AAu?$AAb?$AA?3?$AA?3?$AAW?$AAa?$AAi?$AAt?$AAF?$AAo?$AAr?$AAP?$AAo?$AAr?$AAt?$AAS?$AAt?$AAa?$AAt?$AAu?$AAs?$AAC?$AAh?$AAa?$AAn@ 10007970     hcdlib:cdevice.obj
 0001:000069b8       ??_C@_1GI@PFLBEDL@?$AA?9?$AAC?$AAR?$AAo?$AAo?$AAt?$AAH?$AAu?$AAb?$AA?3?$AA?3?$AAG?$AAe?$AAt?$AAS?$AAt?$AAa?$AAt?$AAu?$AAs?$AA?5?$AA?9?$AA?5?$AAp?$AAo?$AAr?$AAt?$AA?5?$AA?$DN?$AA?5?$AA?$CF?$AAd@ 100079b8     hcdlib:cdevice.obj
 0001:00006a20       ??_C@_1EE@HPELNOPH@?$AA?$CL?$AAC?$AAR?$AAo?$AAo?$AAt?$AAH?$AAu?$AAb?$AA?3?$AA?3?$AAG?$AAe?$AAt?$AAS?$AAt?$AAa?$AAt?$AAu?$AAs?$AA?5?$AA?9?$AA?5?$AAp?$AAo?$AAr?$AAt?$AA?5?$AA?$DN?$AA?5?$AA?$CF?$AAd@ 10007a20     hcdlib:cdevice.obj
 0001:00006a68       ??_C@_1HC@FCGCEEHM@?$AA?9?$AAC?$AAR?$AAo?$AAo?$AAt?$AAH?$AAu?$AAb?$AA?3?$AA?3?$AAR?$AAe?$AAs?$AAe?$AAt?$AAA?$AAn?$AAd?$AAE?$AAn?$AAa?$AAb?$AAl?$AAe?$AAP?$AAo?$AAr?$AAt?$AA?5?$AA?9?$AA?5@ 10007a68     hcdlib:cdevice.obj
 0001:00006ae0       ??_C@_1FG@FLAJCBDG@?$AA?$CL?$AAC?$AAR?$AAo?$AAo?$AAt?$AAH?$AAu?$AAb?$AA?3?$AA?3?$AAR?$AAe?$AAs?$AAe?$AAt?$AAA?$AAn?$AAd?$AAE?$AAn?$AAa?$AAb?$AAl?$AAe?$AAP?$AAo?$AAr?$AAt?$AA?5?$AA?9?$AA?5@ 10007ae0     hcdlib:cdevice.obj
 0001:00006b38       ??_C@_1EI@ICHPNEPH@?$AA?9?$AAC?$AAR?$AAo?$AAo?$AAt?$AAH?$AAu?$AAb?$AA?3?$AA?3?$AAD?$AAi?$AAs?$AAa?$AAb?$AAl?$AAe?$AAP?$AAo?$AAr?$AAt?$AA?5?$AA?9?$AA?5?$AAp?$AAo?$AAr?$AAt?$AA?5?$AA?$DN?$AA?5@ 10007b38     hcdlib:cdevice.obj
 0001:00006b80       ??_C@_1EI@NAKGDBAN@?$AA?$CL?$AAC?$AAR?$AAo?$AAo?$AAt?$AAH?$AAu?$AAb?$AA?3?$AA?3?$AAD?$AAi?$AAs?$AAa?$AAb?$AAl?$AAe?$AAP?$AAo?$AAr?$AAt?$AA?5?$AA?9?$AA?5?$AAp?$AAo?$AAr?$AAt?$AA?5?$AA?$DN?$AA?5@ 10007b80     hcdlib:cdevice.obj
 0001:00006bc8       ??_C@_1LM@CFDGEKIP@?$AA?9?$AAC?$AAR?$AAo?$AAo?$AAt?$AAH?$AAu?$AAb?$AA?3?$AA?3?$AAS?$AAe?$AAt?$AAO?$AAr?$AAC?$AAl?$AAe?$AAa?$AAr?$AAF?$AAe?$AAa?$AAt?$AAu?$AAr?$AAe?$AA?5?$AA?9?$AA?5?$AAp@ 10007bc8     hcdlib:cdevice.obj
 0001:00006c88       ??_C@_1KG@NIOCCNL@?$AAC?$AAR?$AAo?$AAo?$AAt?$AAH?$AAu?$AAb?$AA?3?$AA?3?$AAS?$AAe?$AAt?$AAO?$AAr?$AAC?$AAl?$AAe?$AAa?$AAr?$AAF?$AAe?$AAa?$AAt?$AAu?$AAr?$AAe?$AA?5?$AA?9?$AA?5?$AAp?$AAo@ 10007c88     hcdlib:cdevice.obj
 0001:00006d30       ??_C@_1JI@LGGIGNLA@?$AA?$CL?$AAC?$AAR?$AAo?$AAo?$AAt?$AAH?$AAu?$AAb?$AA?3?$AA?3?$AAS?$AAe?$AAt?$AAO?$AAr?$AAC?$AAl?$AAe?$AAa?$AAr?$AAF?$AAe?$AAa?$AAt?$AAu?$AAr?$AAe?$AA?5?$AA?9?$AA?5?$AAp@ 10007d30     hcdlib:cdevice.obj
 0001:00006dc8       ??_C@_1KC@PIANFNPN@?$AA?9?$AAC?$AAH?$AAu?$AAb?$AA?$CI?$AA?$CF?$AAs?$AA?5?$AAt?$AAi?$AAe?$AAr?$AA?5?$AA?$CF?$AAd?$AA?$CJ?$AA?3?$AA?3?$AAO?$AAT?$AAG?$AAS?$AAw?$AAi?$AAt?$AAc?$AAh?$AAR?$AAo?$AAl?$AAe@ 10007dc8     hcdlib:cdevice.obj
 0001:00006e70       ??_C@_1GG@IGGMMAAG@?$AA?$CL?$AAC?$AAH?$AAu?$AAb?$AA?$CI?$AA?$CF?$AAs?$AA?5?$AAt?$AAi?$AAe?$AAr?$AA?5?$AA?$CF?$AAd?$AA?$CJ?$AA?3?$AA?3?$AAO?$AAT?$AAG?$AAS?$AAw?$AAi?$AAt?$AAc?$AAh?$AAR?$AAo?$AAl?$AAe@ 10007e70     hcdlib:cdevice.obj
 0001:00006ed8       ??_C@_1DK@BLICMNOB@?$AA?9?$AAC?$AAE?$AAx?$AAt?$AAe?$AAr?$AAn?$AAa?$AAl?$AAH?$AAu?$AAb?$AA?3?$AA?3?$AAC?$AAE?$AAx?$AAt?$AAe?$AAr?$AAn?$AAa?$AAl?$AAH?$AAu?$AAb?$AA?6?$AA?$AA@ 10007ed8     hcdlib:cdevice.obj
 0001:00006f14       ??_C@_1DK@HOGBOKMK@?$AA?$CL?$AAC?$AAE?$AAx?$AAt?$AAe?$AAr?$AAn?$AAa?$AAl?$AAH?$AAu?$AAb?$AA?3?$AA?3?$AAC?$AAE?$AAx?$AAt?$AAe?$AAr?$AAn?$AAa?$AAl?$AAH?$AAu?$AAb?$AA?6?$AA?$AA@ 10007f14     hcdlib:cdevice.obj
 0001:00006f50       ??_7CExternalHub@@6B@      10007f50     hcdlib:cdevice.obj
 0001:00006fb0       ??_C@_1BC@KMFBFJEN@?$AAE?$AAx?$AAt?$AAe?$AAr?$AAn?$AAa?$AAl?$AA?$AA@ 10007fb0     hcdlib:cdevice.obj
 0001:00006fc4       ??_C@_1DM@KMIKFLE@?$AA?9?$AAC?$AAE?$AAx?$AAt?$AAe?$AAr?$AAn?$AAa?$AAl?$AAH?$AAu?$AAb?$AA?3?$AA?3?$AA?$HO?$AAC?$AAE?$AAx?$AAt?$AAe?$AAr?$AAn?$AAa?$AAl?$AAH?$AAu?$AAb?$AA?6?$AA?$AA@ 10007fc4     hcdlib:cdevice.obj
 0001:00007000       ??_C@_1DM@NJLCIIFF@?$AA?$CL?$AAC?$AAE?$AAx?$AAt?$AAe?$AAr?$AAn?$AAa?$AAl?$AAH?$AAu?$AAb?$AA?3?$AA?3?$AA?$HO?$AAC?$AAE?$AAx?$AAt?$AAe?$AAr?$AAn?$AAa?$AAl?$AAH?$AAu?$AAb?$AA?6?$AA?$AA@ 10008000     hcdlib:cdevice.obj
 0001:00007040       ??_C@_1HC@GNNHIEFI@?$AA?9?$AAC?$AAE?$AAx?$AAt?$AAe?$AAr?$AAn?$AAa?$AAl?$AAH?$AAu?$AAb?$AA?3?$AA?3?$AAE?$AAn?$AAt?$AAe?$AAr?$AAO?$AAp?$AAe?$AAr?$AAa?$AAt?$AAi?$AAo?$AAn?$AAa?$AAl?$AAS@ 10008040     hcdlib:cdevice.obj
 0001:000070b8       ??_C@_1EM@MEILKMHH@?$AA?$CL?$AAC?$AAE?$AAx?$AAt?$AAe?$AAr?$AAn?$AAa?$AAl?$AAH?$AAu?$AAb?$AA?3?$AA?3?$AAE?$AAn?$AAt?$AAe?$AAr?$AAO?$AAp?$AAe?$AAr?$AAa?$AAt?$AAi?$AAo?$AAn?$AAa?$AAl?$AAS@ 100080b8     hcdlib:cdevice.obj
 0001:00007108       ??_C@_1FM@NDFPLGFL@?$AA?9?$AAC?$AAE?$AAx?$AAt?$AAe?$AAr?$AAn?$AAa?$AAl?$AAH?$AAu?$AAb?$AA?3?$AA?3?$AAP?$AAo?$AAw?$AAe?$AAr?$AAA?$AAl?$AAl?$AAH?$AAu?$AAb?$AAP?$AAo?$AAr?$AAt?$AAs?$AA?0@ 10008108     hcdlib:cdevice.obj
 0001:00007168       ??_C@_1FE@CAIBHEOA@?$AAC?$AAE?$AAx?$AAt?$AAe?$AAr?$AAn?$AAa?$AAl?$AAH?$AAu?$AAb?$AA?3?$AA?3?$AAP?$AAo?$AAw?$AAe?$AAr?$AAA?$AAl?$AAl?$AAH?$AAu?$AAb?$AAP?$AAo?$AAr?$AAt?$AAs?$AA?5?$AA?9@ 10008168     hcdlib:cdevice.obj
 0001:000071c0       ??_C@_1EC@EIEJHPIH@?$AA?$CL?$AAC?$AAE?$AAx?$AAt?$AAe?$AAr?$AAn?$AAa?$AAl?$AAH?$AAu?$AAb?$AA?3?$AA?3?$AAP?$AAo?$AAw?$AAe?$AAr?$AAA?$AAl?$AAl?$AAH?$AAu?$AAb?$AAP?$AAo?$AAr?$AAt?$AAs?$AA?6@ 100081c0     hcdlib:cdevice.obj
 0001:00007208       ??_C@_1JI@EPAIPDFE@?$AA?9?$AAC?$AAE?$AAx?$AAt?$AAe?$AAr?$AAn?$AAa?$AAl?$AA?3?$AA?3?$AAG?$AAe?$AAt?$AAS?$AAt?$AAa?$AAt?$AAu?$AAs?$AAC?$AAh?$AAa?$AAn?$AAg?$AAe?$AAB?$AAi?$AAt?$AAm?$AAa@ 10008208     hcdlib:cdevice.obj
 0001:000072a0       ??_C@_1HO@KALJIFCJ@?$AAC?$AAE?$AAx?$AAt?$AAe?$AAr?$AAn?$AAa?$AAl?$AAH?$AAu?$AAb?$AA?3?$AA?3?$AAG?$AAe?$AAt?$AAS?$AAt?$AAa?$AAt?$AAu?$AAs?$AAC?$AAh?$AAa?$AAn?$AAg?$AAe?$AAB?$AAi?$AAt@ 100082a0     hcdlib:cdevice.obj
 0001:00007320       ??_C@_1EM@DBCILMDF@?$AA?$CL?$AAC?$AAE?$AAx?$AAt?$AAe?$AAr?$AAn?$AAa?$AAl?$AAH?$AAu?$AAb?$AA?3?$AA?3?$AAG?$AAe?$AAt?$AAS?$AAt?$AAa?$AAt?$AAu?$AAs?$AAC?$AAh?$AAa?$AAn?$AAg?$AAe?$AAB?$AAi@ 10008320     hcdlib:cdevice.obj
 0001:00007370       ??_C@_1JC@JNLMDHLK@?$AA?9?$AAC?$AAE?$AAx?$AAt?$AAe?$AAr?$AAn?$AAa?$AAl?$AA?3?$AA?3?$AAW?$AAa?$AAi?$AAt?$AAF?$AAo?$AAr?$AAP?$AAo?$AAr?$AAt?$AAS?$AAt?$AAa?$AAt?$AAu?$AAs?$AAC?$AAh?$AAa@ 10008370     hcdlib:cdevice.obj
 0001:00007408       ??_C@_1FA@GFNGOBND@?$AA?$CL?$AAC?$AAE?$AAx?$AAt?$AAe?$AAr?$AAn?$AAa?$AAl?$AAH?$AAu?$AAb?$AA?3?$AA?3?$AAW?$AAa?$AAi?$AAt?$AAF?$AAo?$AAr?$AAP?$AAo?$AAr?$AAt?$AAS?$AAt?$AAa?$AAt?$AAu?$AAs@ 10008408     hcdlib:cdevice.obj
 0001:00007458       ??_C@_1HA@HBNEJOAD@?$AA?9?$AAC?$AAE?$AAx?$AAt?$AAe?$AAr?$AAn?$AAa?$AAl?$AAH?$AAu?$AAb?$AA?3?$AA?3?$AAG?$AAe?$AAt?$AAS?$AAt?$AAa?$AAt?$AAu?$AAs?$AA?5?$AA?9?$AA?5?$AAp?$AAo?$AAr?$AAt?$AA?5@ 10008458     hcdlib:cdevice.obj
 0001:000074c8       ??_C@_1EM@EIPHIIFI@?$AA?$CL?$AAC?$AAE?$AAx?$AAt?$AAe?$AAr?$AAn?$AAa?$AAl?$AAH?$AAu?$AAb?$AA?3?$AA?3?$AAG?$AAe?$AAt?$AAS?$AAt?$AAa?$AAt?$AAu?$AAs?$AA?5?$AA?9?$AA?5?$AAp?$AAo?$AAr?$AAt?$AA?5@ 100084c8     hcdlib:cdevice.obj
 0001:00007518       ??_C@_1HK@OMHBDAGB@?$AA?9?$AAC?$AAE?$AAx?$AAt?$AAe?$AAr?$AAn?$AAa?$AAl?$AAH?$AAu?$AAb?$AA?3?$AA?3?$AAR?$AAe?$AAs?$AAe?$AAt?$AAA?$AAn?$AAd?$AAE?$AAn?$AAa?$AAb?$AAl?$AAe?$AAP?$AAo?$AAr@ 10008518     hcdlib:cdevice.obj
 0001:00007598       ??_C@_1JC@GLHNDCHK@?$AA?9?$AAC?$AAE?$AAx?$AAt?$AAe?$AAr?$AAn?$AAa?$AAl?$AAH?$AAu?$AAb?$AA?3?$AA?3?$AAR?$AAe?$AAs?$AAe?$AAt?$AAA?$AAn?$AAd?$AAE?$AAn?$AAa?$AAb?$AAl?$AAe?$AAP?$AAo?$AAr@ 10008598     hcdlib:cdevice.obj
 0001:00007630       ??_C@_1FO@OOBJEFHK@?$AA?$CL?$AAC?$AAE?$AAx?$AAt?$AAe?$AAr?$AAn?$AAa?$AAl?$AAH?$AAu?$AAb?$AA?3?$AA?3?$AAR?$AAe?$AAs?$AAe?$AAt?$AAA?$AAn?$AAd?$AAE?$AAn?$AAa?$AAb?$AAl?$AAe?$AAP?$AAo?$AAr@ 10008630     hcdlib:cdevice.obj
 0001:00007690       ??_C@_1FA@BFIDHOJJ@?$AA?9?$AAC?$AAE?$AAx?$AAt?$AAe?$AAr?$AAn?$AAa?$AAl?$AAH?$AAu?$AAb?$AA?3?$AA?3?$AAD?$AAi?$AAs?$AAa?$AAb?$AAl?$AAe?$AAP?$AAo?$AAr?$AAt?$AA?5?$AA?9?$AA?5?$AAp?$AAo?$AAr@ 10008690     hcdlib:cdevice.obj
 0001:000076e0       ??_C@_1FA@FNFCCOOH@?$AA?$CL?$AAC?$AAE?$AAx?$AAt?$AAe?$AAr?$AAn?$AAa?$AAl?$AAH?$AAu?$AAb?$AA?3?$AA?3?$AAD?$AAi?$AAs?$AAa?$AAb?$AAl?$AAe?$AAP?$AAo?$AAr?$AAt?$AA?5?$AA?9?$AA?5?$AAp?$AAo?$AAr@ 100086e0     hcdlib:cdevice.obj
 0001:00007730       ??_C@_1ME@IBBEICDF@?$AA?9?$AAC?$AAE?$AAx?$AAt?$AAe?$AAr?$AAn?$AAa?$AAl?$AAH?$AAu?$AAb?$AA?3?$AA?3?$AAS?$AAe?$AAt?$AAO?$AAr?$AAC?$AAl?$AAe?$AAa?$AAr?$AAF?$AAe?$AAa?$AAt?$AAu?$AAr?$AAe@ 10008730     hcdlib:cdevice.obj
 0001:000077f8       ??_C@_1KO@NCFBBEAA@?$AAC?$AAE?$AAx?$AAt?$AAe?$AAr?$AAn?$AAa?$AAl?$AAH?$AAu?$AAb?$AA?3?$AA?3?$AAS?$AAe?$AAt?$AAO?$AAr?$AAC?$AAl?$AAe?$AAa?$AAr?$AAF?$AAe?$AAa?$AAt?$AAu?$AAr?$AAe?$AA?5@ 100087f8     hcdlib:cdevice.obj
 0001:000078a8       ??_C@_1KA@EIDHOGBK@?$AA?$CL?$AAC?$AAE?$AAx?$AAt?$AAe?$AAr?$AAn?$AAa?$AAl?$AAH?$AAu?$AAb?$AA?3?$AA?3?$AAS?$AAe?$AAt?$AAO?$AAr?$AAC?$AAl?$AAe?$AAa?$AAr?$AAF?$AAe?$AAa?$AAt?$AAu?$AAr?$AAe@ 100088a8     hcdlib:cdevice.obj
 0001:00007948       ??_C@_1HE@OGFLIABG@?$AA?9?$AAC?$AAE?$AAx?$AAt?$AAe?$AAr?$AAn?$AAa?$AAl?$AAH?$AAu?$AAb?$AA?3?$AA?3?$AAS?$AAe?$AAt?$AAO?$AAr?$AAC?$AAl?$AAe?$AAa?$AAr?$AAR?$AAe?$AAm?$AAo?$AAt?$AAe?$AAW@ 10008948     hcdlib:cdevice.obj
 0001:000079c0       ??_C@_1GG@EJGBKNJ@?$AA?$CL?$AAC?$AAE?$AAx?$AAt?$AAe?$AAr?$AAn?$AAa?$AAl?$AAH?$AAu?$AAb?$AA?3?$AA?3?$AAS?$AAe?$AAt?$AAO?$AAr?$AAC?$AAl?$AAe?$AAa?$AAr?$AAR?$AAe?$AAm?$AAo?$AAt?$AAe?$AAW@ 100089c0     hcdlib:cdevice.obj
 0001:00007a28       ??_C@_1EA@HAHMHPPG@?$AA?9?$AAC?$AAF?$AAu?$AAn?$AAc?$AAt?$AAi?$AAo?$AAn?$AA?$CI?$AAt?$AAi?$AAe?$AAr?$AA?5?$AA?$CF?$AAd?$AA?$CJ?$AA?3?$AA?3?$AAC?$AAF?$AAu?$AAn?$AAc?$AAt?$AAi?$AAo?$AAn?$AA?6?$AA?$AA@ 10008a28     hcdlib:cdevice.obj
 0001:00007a68       ??_C@_1EA@OECAJOAK@?$AA?$CL?$AAC?$AAF?$AAu?$AAn?$AAc?$AAt?$AAi?$AAo?$AAn?$AA?$CI?$AAt?$AAi?$AAe?$AAr?$AA?5?$AA?$CF?$AAd?$AA?$CJ?$AA?3?$AA?3?$AAC?$AAF?$AAu?$AAn?$AAc?$AAt?$AAi?$AAo?$AAn?$AA?6?$AA?$AA@ 10008a68     hcdlib:cdevice.obj
 0001:00007aa8       ??_7CFunction@@6B@         10008aa8     hcdlib:cdevice.obj
 0001:00007ae4       ??_C@_1BC@IDPNFFME@?$AAF?$AAu?$AAn?$AAc?$AAt?$AAi?$AAo?$AAn?$AA?$AA@ 10008ae4     hcdlib:cdevice.obj
 0001:00007af8       ??_C@_1EC@FBEPJHCP@?$AA?9?$AAC?$AAF?$AAu?$AAn?$AAc?$AAt?$AAi?$AAo?$AAn?$AA?$CI?$AAt?$AAi?$AAe?$AAr?$AA?5?$AA?$CF?$AAd?$AA?$CJ?$AA?3?$AA?3?$AA?$HO?$AAC?$AAF?$AAu?$AAn?$AAc?$AAt?$AAi?$AAo?$AAn?$AA?6@ 10008af8     hcdlib:cdevice.obj
 0001:00007b40       ??_C@_1EC@DOELHPCM@?$AA?$CL?$AAC?$AAF?$AAu?$AAn?$AAc?$AAt?$AAi?$AAo?$AAn?$AA?$CI?$AAt?$AAi?$AAe?$AAr?$AA?5?$AA?$CF?$AAd?$AA?$CJ?$AA?3?$AA?3?$AA?$HO?$AAC?$AAF?$AAu?$AAn?$AAc?$AAt?$AAi?$AAo?$AAn?$AA?6@ 10008b40     hcdlib:cdevice.obj
 0001:00007b88       ??_C@_1HO@CKKHIFHP@?$AA?9?$AAC?$AAF?$AAu?$AAn?$AAc?$AAt?$AAi?$AAo?$AAn?$AA?$CI?$AAt?$AAi?$AAe?$AAr?$AA?5?$AA?$CF?$AAd?$AA?$CJ?$AA?3?$AA?3?$AAE?$AAn?$AAt?$AAe?$AAr?$AAO?$AAp?$AAe?$AAr?$AAa?$AAt@ 10008b88     hcdlib:cdevice.obj
 0001:00007c08       ??_C@_1GI@DBLMBFBL@?$AAC?$AAF?$AAu?$AAn?$AAc?$AAt?$AAi?$AAo?$AAn?$AA?$CI?$AAt?$AAi?$AAe?$AAr?$AA?5?$AA?$CF?$AAd?$AA?$CJ?$AA?3?$AA?3?$AAE?$AAn?$AAt?$AAe?$AAr?$AAO?$AAp?$AAe?$AAr?$AAa?$AAt?$AAi@ 10008c08     hcdlib:cdevice.obj
 0001:00007c70       ??_C@_1GE@OKHKLFOB@?$AAS?$AAE?$AAT?$AA?5?$AAF?$AAE?$AAA?$AAT?$AAU?$AAR?$AAE?$AA?5?$AAU?$AAS?$AAB?$AA_?$AAF?$AAE?$AAA?$AAT?$AAU?$AAR?$AAE?$AA_?$AAB?$AA_?$AAH?$AAN?$AAP?$AA_?$AAE?$AAN@ 10008c70     hcdlib:cdevice.obj
 0001:00007cd8       ??_C@_1FI@PNNALGEC@?$AA?$CL?$AAC?$AAF?$AAu?$AAn?$AAc?$AAt?$AAi?$AAo?$AAn?$AA?$CI?$AAt?$AAi?$AAe?$AAr?$AA?5?$AA?$CF?$AAd?$AA?$CJ?$AA?3?$AA?3?$AAE?$AAn?$AAt?$AAe?$AAr?$AAO?$AAp?$AAe?$AAr?$AAa?$AAt@ 10008cd8     hcdlib:cdevice.obj
 0001:00007d30       ??_C@_1JM@IKMNJOMD@?$AA?9?$AAC?$AAF?$AAu?$AAn?$AAc?$AAt?$AAi?$AAo?$AAn?$AA?$CI?$AAt?$AAi?$AAe?$AAr?$AA?5?$AA?$CF?$AAd?$AA?$CJ?$AA?3?$AA?3?$AAO?$AAp?$AAe?$AAn?$AAP?$AAi?$AAp?$AAe?$AA?5?$AA?9?$AA?5@ 10008d30     hcdlib:cdevice.obj
 0001:00007dd0       ??_C@_1IK@MOOEIMIB@?$AAC?$AAF?$AAu?$AAn?$AAc?$AAt?$AAi?$AAo?$AAn?$AA?$CI?$AAt?$AAi?$AAe?$AAr?$AA?5?$AA?$CF?$AAd?$AA?$CJ?$AA?3?$AA?3?$AAO?$AAp?$AAe?$AAn?$AAP?$AAi?$AAp?$AAe?$AA?5?$AA?9?$AA?5?$AAo@ 10008dd0     hcdlib:cdevice.obj
 0001:00007e60       ??_C@_1KM@JACIJAAL@?$AAC?$AAF?$AAu?$AAn?$AAc?$AAt?$AAi?$AAo?$AAn?$AA?$CI?$AAt?$AAi?$AAe?$AAr?$AA?5?$AA?$CF?$AAd?$AA?$CJ?$AA?3?$AA?3?$AAO?$AAp?$AAe?$AAn?$AAP?$AAi?$AAp?$AAe?$AA?5?$AA?9?$AA?5?$AAa@ 10008e60     hcdlib:cdevice.obj
 0001:00007f10       ??_C@_1ME@KAFNGAIE@?$AAC?$AAF?$AAu?$AAn?$AAc?$AAt?$AAi?$AAo?$AAn?$AA?$CI?$AAt?$AAi?$AAe?$AAr?$AA?5?$AA?$CF?$AAd?$AA?$CJ?$AA?3?$AA?3?$AAO?$AAp?$AAe?$AAn?$AAP?$AAi?$AAp?$AAe?$AA?5?$AA?9?$AA?5?$AAe@ 10008f10     hcdlib:cdevice.obj
 0001:00007fd8       ??_C@_1FM@LHKAGABP@?$AA?$CL?$AAC?$AAF?$AAu?$AAn?$AAc?$AAt?$AAi?$AAo?$AAn?$AA?$CI?$AAt?$AAi?$AAe?$AAr?$AA?5?$AA?$CF?$AAd?$AA?$CJ?$AA?3?$AA?3?$AAO?$AAp?$AAe?$AAn?$AAP?$AAi?$AAp?$AAe?$AA?5?$AA?9?$AA?5@ 10008fd8     hcdlib:cdevice.obj
 0001:00008038       ??_C@_1LE@CFCEGCI@?$AA?9?$AAC?$AAF?$AAu?$AAn?$AAc?$AAt?$AAi?$AAo?$AAn?$AA?$CI?$AAt?$AAi?$AAe?$AAr?$AA?5?$AA?$CF?$AAd?$AA?$CJ?$AA?3?$AA?3?$AAC?$AAl?$AAo?$AAs?$AAe?$AAP?$AAi?$AAp?$AAe?$AA?5?$AA?9@ 10009038     hcdlib:cdevice.obj
 0001:000080f0       ??_C@_1KG@MIBBGHMA@?$AAC?$AAF?$AAu?$AAn?$AAc?$AAt?$AAi?$AAo?$AAn?$AA?$CI?$AAt?$AAi?$AAe?$AAr?$AA?5?$AA?$CF?$AAd?$AA?$CJ?$AA?3?$AA?3?$AAC?$AAl?$AAo?$AAs?$AAe?$AAP?$AAi?$AAp?$AAe?$AA?5?$AA?9?$AA?5@ 100090f0     hcdlib:cdevice.obj
 0001:00008198       ??_C@_1IA@LNBOPBH@?$AAC?$AAF?$AAu?$AAn?$AAc?$AAt?$AAi?$AAo?$AAn?$AA?$CI?$AAt?$AAi?$AAe?$AAr?$AA?5?$AA?$CF?$AAd?$AA?$CJ?$AA?3?$AA?3?$AAC?$AAl?$AAo?$AAs?$AAe?$AAP?$AAi?$AAp?$AAe?$AA?5?$AA?9?$AA?5@ 10009198     hcdlib:cdevice.obj
 0001:00008218       ??_C@_1HE@FILFIPFM@?$AA?$CL?$AAC?$AAF?$AAu?$AAn?$AAc?$AAt?$AAi?$AAo?$AAn?$AA?$CI?$AAt?$AAi?$AAe?$AAr?$AA?5?$AA?$CF?$AAd?$AA?$CJ?$AA?3?$AA?3?$AAC?$AAl?$AAo?$AAs?$AAe?$AAP?$AAi?$AAp?$AAe?$AA?5?$AA?9@ 10009218     hcdlib:cdevice.obj
 0001:00008290       ??_C@_1IK@JNPJLHDE@?$AA?9?$AAC?$AAF?$AAu?$AAn?$AAc?$AAt?$AAi?$AAo?$AAn?$AA?$CI?$AAt?$AAi?$AAe?$AAr?$AA?5?$AA?$CF?$AAd?$AA?$CJ?$AA?3?$AA?3?$AAI?$AAs?$AAs?$AAu?$AAe?$AAT?$AAr?$AAa?$AAn?$AAs?$AAf@ 10009290     hcdlib:cdevice.obj
 0001:00008320       ??_C@_1LG@HEEINJNP@?$AA?$CB?$AA?$CB?$AA?$CB?$AAC?$AAF?$AAu?$AAn?$AAc?$AAt?$AAi?$AAo?$AAn?$AA?$CI?$AA?5?$AAt?$AAi?$AAe?$AAr?$AA?5?$AA?$CF?$AAd?$AA?$CJ?$AA?3?$AA?3?$AAI?$AAs?$AAs?$AAu?$AAe?$AAT?$AAr?$AAa@ 10009320     hcdlib:cdevice.obj
 0001:000083d8       ??_C@_1EI@BLOBBPOH@?$AA?$CL?$AAC?$AAF?$AAu?$AAn?$AAc?$AAt?$AAi?$AAo?$AAn?$AA?$CI?$AAt?$AAi?$AAe?$AAr?$AA?5?$AA?$CF?$AAd?$AA?$CJ?$AA?3?$AA?3?$AAI?$AAs?$AAs?$AAu?$AAe?$AAT?$AAr?$AAa?$AAn?$AAs?$AAf@ 100093d8     hcdlib:cdevice.obj
 0001:00008420       ??_C@_1LM@GKIPBFAK@?$AA?9?$AAC?$AAF?$AAu?$AAn?$AAc?$AAt?$AAi?$AAo?$AAn?$AA?$CI?$AAt?$AAi?$AAe?$AAr?$AA?5?$AA?$CF?$AAd?$AA?$CJ?$AA?3?$AA?3?$AAA?$AAb?$AAo?$AAr?$AAt?$AAT?$AAr?$AAa?$AAn?$AAs?$AAf@ 10009420     hcdlib:cdevice.obj
 0001:000084e0       ??_C@_1HM@LNHMIHEJ@?$AA?$CL?$AAC?$AAF?$AAu?$AAn?$AAc?$AAt?$AAi?$AAo?$AAn?$AA?$CI?$AAt?$AAi?$AAe?$AAr?$AA?5?$AA?$CF?$AAd?$AA?$CJ?$AA?3?$AA?3?$AAA?$AAb?$AAo?$AAr?$AAt?$AAT?$AAr?$AAa?$AAn?$AAs?$AAf@ 100094e0     hcdlib:cdevice.obj
 0001:00008560       ??_C@_1LK@JJFGCKDD@?$AA?9?$AAC?$AAF?$AAu?$AAn?$AAc?$AAt?$AAi?$AAo?$AAn?$AA?$CI?$AAt?$AAi?$AAe?$AAr?$AA?5?$AA?$CF?$AAd?$AA?$CJ?$AA?3?$AA?3?$AAI?$AAs?$AAP?$AAi?$AAp?$AAe?$AAH?$AAa?$AAl?$AAt?$AAe@ 10009560     hcdlib:cdevice.obj
 0001:00008620       ??_C@_1LE@DHENCBPM@?$AA?$CB?$AA?$CB?$AA?$CB?$AAC?$AAF?$AAu?$AAn?$AAc?$AAt?$AAi?$AAo?$AAn?$AA?$CI?$AA?5?$AAt?$AAi?$AAe?$AAr?$AA?5?$AA?$CF?$AAd?$AA?$CJ?$AA?3?$AA?3?$AAI?$AAs?$AAP?$AAi?$AAp?$AAe?$AAH?$AAa@ 10009620     hcdlib:cdevice.obj
 0001:000086d8       ??_C@_1HK@JILDILFA@?$AA?$CL?$AAC?$AAF?$AAu?$AAn?$AAc?$AAt?$AAi?$AAo?$AAn?$AA?$CI?$AAt?$AAi?$AAe?$AAr?$AA?5?$AA?$CF?$AAd?$AA?$CJ?$AA?3?$AA?3?$AAI?$AAs?$AAP?$AAi?$AAp?$AAe?$AAH?$AAa?$AAl?$AAt?$AAe@ 100096d8     hcdlib:cdevice.obj
 0001:00008758       ??_C@_1LE@BINMLMAA@?$AA?9?$AAC?$AAF?$AAu?$AAn?$AAc?$AAt?$AAi?$AAo?$AAn?$AA?$CI?$AAt?$AAi?$AAe?$AAr?$AA?5?$AA?$CF?$AAd?$AA?$CJ?$AA?3?$AA?3?$AAR?$AAe?$AAs?$AAe?$AAt?$AAP?$AAi?$AAp?$AAe?$AA?5?$AA?9@ 10009758     hcdlib:cdevice.obj
 0001:00008810       ??_C@_1KO@DBPBLAEA@?$AA?$CB?$AA?$CB?$AA?$CB?$AAC?$AAF?$AAu?$AAn?$AAc?$AAt?$AAi?$AAo?$AAn?$AA?$CI?$AA?5?$AAt?$AAi?$AAe?$AAr?$AA?5?$AA?$CF?$AAd?$AA?$CJ?$AA?3?$AA?3?$AAR?$AAe?$AAs?$AAe?$AAt?$AAP?$AAi?$AAp@ 10009810     hcdlib:cdevice.obj
 0001:000088c0       ??_C@_1HE@CMDAIMMM@?$AA?$CL?$AAC?$AAF?$AAu?$AAn?$AAc?$AAt?$AAi?$AAo?$AAn?$AA?$CI?$AAt?$AAi?$AAe?$AAr?$AA?5?$AA?$CF?$AAd?$AA?$CJ?$AA?3?$AA?3?$AAR?$AAe?$AAs?$AAe?$AAt?$AAP?$AAi?$AAp?$AAe?$AA?5?$AA?9@ 100098c0     hcdlib:cdevice.obj
 0001:00008938       ??_C@_1EG@JMCHJCGL@?$AA?9?$AAC?$AAF?$AAu?$AAn?$AAc?$AAt?$AAi?$AAo?$AAn?$AA?$CI?$AAt?$AAi?$AAe?$AAr?$AA?5?$AA?$CF?$AAd?$AA?$CJ?$AA?3?$AA?3?$AAH?$AAa?$AAn?$AAd?$AAl?$AAe?$AAD?$AAe?$AAt?$AAa?$AAc@ 10009938     hcdlib:cdevice.obj
 0001:00008980       ??_C@_1EG@JAACAFFA@?$AA?$CL?$AAC?$AAF?$AAu?$AAn?$AAc?$AAt?$AAi?$AAo?$AAn?$AA?$CI?$AAt?$AAi?$AAe?$AAr?$AA?5?$AA?$CF?$AAd?$AA?$CJ?$AA?3?$AA?3?$AAH?$AAa?$AAn?$AAd?$AAl?$AAe?$AAD?$AAe?$AAt?$AAa?$AAc@ 10009980     hcdlib:cdevice.obj
 0001:000089c8       ??_C@_1OC@CDIKDMDG@?$AA?9?$AAC?$AAF?$AAu?$AAn?$AAc?$AAt?$AAi?$AAo?$AAn?$AA?3?$AA?3?$AAS?$AAe?$AAt?$AAO?$AAr?$AAC?$AAl?$AAe?$AAa?$AAr?$AAF?$AAe?$AAa?$AAt?$AAu?$AAr?$AAe?$AA?5?$AA?9?$AA?5@ 100099c8     hcdlib:cdevice.obj
 0001:00008ab0       ??_C@_1MM@KEJIBKLK@?$AAC?$AAF?$AAu?$AAn?$AAc?$AAt?$AAi?$AAo?$AAn?$AA?3?$AA?3?$AAS?$AAe?$AAt?$AAO?$AAr?$AAC?$AAl?$AAe?$AAa?$AAr?$AAF?$AAe?$AAa?$AAt?$AAu?$AAr?$AAe?$AA?5?$AA?9?$AA?5?$AAr@ 10009ab0     hcdlib:cdevice.obj
 0001:00008b80       ??_C@_1KC@IPFPLIKG@?$AA?$CB?$AA?$CB?$AA?$CB?$AAC?$AAF?$AAu?$AAn?$AAc?$AAt?$AAi?$AAo?$AAn?$AA?$CI?$AA?5?$AAt?$AAi?$AAe?$AAr?$AA?5?$AA?$CF?$AAd?$AA?$CJ?$AA?3?$AA?3?$AAS?$AAe?$AAt?$AAO?$AAr?$AAC?$AAl?$AAe@ 10009b80     hcdlib:cdevice.obj
 0001:00008c28       ??_C@_1KI@NHPPIIBA@?$AA?$CB?$AA?$CB?$AA?$CB?$AAC?$AAF?$AAu?$AAn?$AAc?$AAt?$AAi?$AAo?$AAn?$AA?$CI?$AA?5?$AAt?$AAi?$AAe?$AAr?$AA?5?$AA?$CF?$AAd?$AA?$CJ?$AA?3?$AA?3?$AAS?$AAe?$AAt?$AAO?$AAr?$AAC?$AAl?$AAe@ 10009c28     hcdlib:cdevice.obj
 0001:00008cd0       ??_C@_1LO@LLOAFJJK@?$AA?$CL?$AAC?$AAF?$AAu?$AAn?$AAc?$AAt?$AAi?$AAo?$AAn?$AA?3?$AA?3?$AAS?$AAe?$AAt?$AAO?$AAr?$AAC?$AAl?$AAe?$AAa?$AAr?$AAF?$AAe?$AAa?$AAt?$AAu?$AAr?$AAe?$AA?5?$AA?9?$AA?5@ 10009cd0     hcdlib:cdevice.obj
 0001:00008d90       ??_C@_1HO@HEEIMFIN@?$AAd?$AA?3?$AA?2?$AAy?$AAz?$AAk?$AAi?$AAq?$AAf?$AAe?$AA?2?$AAp?$AAu?$AAb?$AAl?$AAi?$AAc?$AA?2?$AAC?$AAO?$AAM?$AAM?$AAO?$AAN?$AA?2?$AAo?$AAa?$AAk?$AA?2?$AAd?$AAr?$AAi@ 10009d90     hcdlib:sync.obj
 0001:00008e10       ??_C@_1BO@KGAIOMPP@?$AA?9?$AAC?$AAO?$AAh?$AAc?$AAd?$AA?3?$AA?3?$AAC?$AAO?$AAh?$AAc?$AAd?$AA?6?$AA?$AA@ 10009e10     ohcdmdd2:cohcd.obj
 0001:00008e30       ??_C@_1BO@CPEKKGMP@?$AA?$CL?$AAC?$AAO?$AAh?$AAc?$AAd?$AA?3?$AA?3?$AAC?$AAO?$AAh?$AAc?$AAd?$AA?6?$AA?$AA@ 10009e30     ohcdmdd2:cohcd.obj
 0001:00008e50       ??_7COhcd@@6B@             10009e50     ohcdmdd2:cohcd.obj
 0001:00008eb0       ??_C@_1CA@CLPACNGJ@?$AA?9?$AAC?$AAO?$AAh?$AAc?$AAd?$AA?3?$AA?3?$AA?$HO?$AAC?$AAO?$AAh?$AAc?$AAd?$AA?6?$AA?$AA@ 10009eb0     ohcdmdd2:cohcd.obj
 0001:00008ed0       ??_C@_1CA@GCLPDKFG@?$AA?$CL?$AAC?$AAO?$AAh?$AAc?$AAd?$AA?3?$AA?3?$AA?$HO?$AAC?$AAO?$AAh?$AAc?$AAd?$AA?6?$AA?$AA@ 10009ed0     ohcdmdd2:cohcd.obj
 0001:00008ef0       ??_C@_1CM@MLKLFHDG@?$AA?9?$AAC?$AAO?$AAh?$AAc?$AAd?$AA?3?$AA?3?$AAD?$AAe?$AAI?$AAn?$AAi?$AAt?$AAi?$AAa?$AAl?$AAi?$AAz?$AAe?$AA?6?$AA?$AA@ 10009ef0     ohcdmdd2:cohcd.obj
 0001:00008f1c       ??_C@_1CM@DHFLMGHK@?$AA?$CL?$AAC?$AAO?$AAh?$AAc?$AAd?$AA?3?$AA?3?$AAD?$AAe?$AAI?$AAn?$AAi?$AAt?$AAi?$AAa?$AAl?$AAi?$AAz?$AAe?$AA?6?$AA?$AA@ 10009f1c     ohcdmdd2:cohcd.obj
 0001:00008f48       ??_C@_1EA@PHKIJJIC@?$AA?9?$AAC?$AAO?$AAh?$AAc?$AAd?$AA?3?$AA?3?$AAI?$AAn?$AAi?$AAt?$AAi?$AAa?$AAl?$AAi?$AAz?$AAe?$AA?4?$AA?5?$AAS?$AAu?$AAc?$AAc?$AAe?$AAs?$AAs?$AA?$CB?$AA?$CB?$AA?$AN?$AA?6?$AA?$AA@ 10009f48     ohcdmdd2:cohcd.obj
 0001:00008f88       ??_C@_1GC@HEBGBHNE@?$AA?9?$AAC?$AAO?$AAh?$AAc?$AAd?$AA?3?$AA?3?$AAI?$AAn?$AAi?$AAt?$AAi?$AAa?$AAl?$AAi?$AAz?$AAe?$AA?4?$AA?5?$AAE?$AAr?$AAr?$AAo?$AAr?$AA?5?$AAi?$AAn?$AAi?$AAt?$AAi?$AAa@ 10009f88     ohcdmdd2:cohcd.obj
 0001:00008ff0       ??_C@_1GO@IADEALLD@?$AA?9?$AAC?$AAO?$AAh?$AAc?$AAd?$AA?3?$AA?3?$AAI?$AAn?$AAi?$AAt?$AAi?$AAa?$AAl?$AAi?$AAz?$AAe?$AA?5?$AA?9?$AA?5?$AAu?$AAn?$AAa?$AAb?$AAl?$AAe?$AA?5?$AAt?$AAo?$AA?5?$AAc@ 10009ff0     ohcdmdd2:cohcd.obj
 0001:00009060       ??_C@_1JC@HMPEACMO@?$AA?9?$AAC?$AAO?$AAh?$AAc?$AAd?$AA?3?$AA?3?$AAI?$AAn?$AAi?$AAt?$AAi?$AAa?$AAl?$AAi?$AAz?$AAe?$AA?4?$AA?5?$AAE?$AAr?$AAr?$AAo?$AAr?$AA?5?$AA?9?$AA?5?$AAc?$AAo?$AAu?$AAl@ 1000a060     ohcdmdd2:cohcd.obj
 0001:000090f4       ??_C@_1DI@KLJCMAGK@?$AA?$CL?$AAC?$AAO?$AAh?$AAc?$AAd?$AA?3?$AA?3?$AAI?$AAn?$AAi?$AAt?$AAi?$AAa?$AAl?$AAi?$AAz?$AAe?$AA?4?$AA?5?$AAE?$AAn?$AAt?$AAr?$AAy?$AA?$AN?$AA?6?$AA?$AA@ 1000a0f4     ohcdmdd2:cohcd.obj
 0001:0000912c       ??_C@_1DM@BJNHCADK@?$AA?9?$AAC?$AAP?$AAi?$AAp?$AAe?$AA?3?$AA?3?$AAI?$AAn?$AAi?$AAt?$AAi?$AAa?$AAl?$AAi?$AAz?$AAe?$AA?4?$AA?5?$AAS?$AAu?$AAc?$AAc?$AAe?$AAs?$AAs?$AA?$CB?$AA?6?$AA?$AA@ 1000a12c     ohcdmdd2:cpipe.obj
 0001:00009168       ??_C@_1IE@FLPBCPAJ@?$AA?9?$AAC?$AAP?$AAi?$AAp?$AAe?$AA?3?$AA?3?$AAI?$AAn?$AAi?$AAt?$AAi?$AAa?$AAl?$AAi?$AAz?$AAe?$AA?4?$AA?5?$AAE?$AAr?$AAr?$AAo?$AAr?$AA?5?$AAc?$AAr?$AAe?$AAa?$AAt?$AAi@ 1000a168     ohcdmdd2:cpipe.obj
 0001:000091f0       ??_C@_1IC@BKOJKGJB@?$AA?9?$AAC?$AAP?$AAi?$AAp?$AAe?$AA?3?$AA?3?$AAI?$AAn?$AAi?$AAt?$AAi?$AAa?$AAl?$AAi?$AAz?$AAe?$AA?4?$AA?5?$AAE?$AAr?$AAr?$AAo?$AAr?$AA?5?$AAc?$AAr?$AAe?$AAa?$AAt?$AAi@ 1000a1f0     ohcdmdd2:cpipe.obj
 0001:00009278       ??_C@_1HO@MCPLECNF@?$AAC?$AAP?$AAi?$AAp?$AAe?$AA?3?$AA?3?$AAI?$AAn?$AAi?$AAt?$AAi?$AAa?$AAl?$AAi?$AAz?$AAe?$AA?5?$AA?9?$AA?5?$AAa?$AAl?$AAl?$AAo?$AAc?$AAa?$AAt?$AAe?$AA?5?$AAp?$AAe?$AAr@ 1000a278     ohcdmdd2:cpipe.obj
 0001:000092f8       ??_C@_1GK@HAAKIPHD@?$AA?9?$AAC?$AAP?$AAi?$AAp?$AAe?$AA?3?$AA?3?$AAI?$AAn?$AAi?$AAt?$AAi?$AAa?$AAl?$AAi?$AAz?$AAe?$AA?5?$AA?9?$AA?5?$AAC?$AAo?$AAu?$AAl?$AAd?$AA?5?$AAn?$AAo?$AAt?$AA?5?$AAg@ 1000a2f8     ohcdmdd2:cpipe.obj
 0001:00009364       ??_C@_1BM@BFJMIHAE@?$AAP?$AAe?$AAr?$AAm?$AAa?$AAn?$AAe?$AAn?$AAt?$AA?5?$AAE?$AAD?$AAs?$AA?$AA@ 1000a364     ohcdmdd2:cpipe.obj
 0001:00009380       ??_C@_1GA@LBPKOGDA@?$AA?9?$AAC?$AAP?$AAi?$AAp?$AAe?$AA?3?$AA?3?$AAI?$AAn?$AAi?$AAt?$AAi?$AAa?$AAl?$AAi?$AAz?$AAe?$AA?0?$AA?5?$AAn?$AAo?$AA?5?$AAm?$AAe?$AAm?$AAo?$AAr?$AAy?$AA?5?$AAm?$AAa@ 1000a380     ohcdmdd2:cpipe.obj
 0001:000093e0       ??_C@_1HO@BEOBMPIK@?$AAC?$AA?3?$AA?2?$AAy?$AAz?$AAk?$AAi?$AAq?$AAf?$AAe?$AA?2?$AAp?$AAu?$AAb?$AAl?$AAi?$AAc?$AA?2?$AAC?$AAO?$AAM?$AAM?$AAO?$AAN?$AA?2?$AAo?$AAa?$AAk?$AA?2?$AAd?$AAr?$AAi@ 1000a3e0     ohcdmdd2:cpipe.obj
 0001:00009460       ??_C@_1CI@GACNHNJK@?$AA?$CL?$AAC?$AAP?$AAi?$AAp?$AAe?$AA?3?$AA?3?$AAI?$AAn?$AAi?$AAt?$AAi?$AAa?$AAl?$AAi?$AAz?$AAe?$AA?6?$AA?$AA@ 1000a460     ohcdmdd2:cpipe.obj
 0001:00009488       ??_C@_1HK@FOMDPLMJ@?$AAc?$AA?3?$AA?2?$AAy?$AAz?$AAk?$AAi?$AAq?$AAf?$AAe?$AA?2?$AAp?$AAu?$AAb?$AAl?$AAi?$AAc?$AA?2?$AAc?$AAo?$AAm?$AAm?$AAo?$AAn?$AA?2?$AAo?$AAa?$AAk?$AA?2?$AAd?$AAr?$AAi@ 1000a488     ohcdmdd2:cpipe.obj
 0001:00009504       ??_C@_1CO@MCGGOMJG@?$AA?4?$AA?4?$AA?2?$AAc?$AAo?$AAm?$AAm?$AAo?$AAn?$AA?2?$AAc?$AAp?$AAh?$AAy?$AAs?$AAm?$AAe?$AAm?$AA?4?$AAh?$AAp?$AAp?$AA?$AA@ 1000a504     ohcdmdd2:cpipe.obj
 0001:00009538       ??_C@_1MG@EFJIHDPK@?$AAO?$AAH?$AAC?$AAI?$AA?3?$AA?5?$AAC?$AAH?$AAC?$AAC?$AAA?$AAe?$AAr?$AAa?$AA?3?$AA?3?$AAS?$AAi?$AAg?$AAn?$AAa?$AAl?$AAC?$AAh?$AAe?$AAc?$AAk?$AAF?$AAo?$AAr?$AAD?$AAo@ 1000a538     ohcdmdd2:cpipe.obj
 0001:00009600       ??_C@_1FA@BINOMPCK@?$AA?9?$AAC?$AAH?$AAC?$AAC?$AAA?$AAe?$AAr?$AAa?$AA?3?$AA?3?$AAC?$AAh?$AAe?$AAc?$AAk?$AAF?$AAo?$AAr?$AAD?$AAo?$AAn?$AAe?$AAT?$AAr?$AAa?$AAn?$AAs?$AAf?$AAe?$AAr?$AAs@ 1000a600     ohcdmdd2:cpipe.obj
 0001:00009650       ??_C@_1EO@POBLGBMA@?$AAC?$AAP?$AAi?$AAp?$AAe?$AA?3?$AA?3?$AAC?$AAF?$AAD?$AAT?$AA?5?$AAt?$AAd?$AA?5?$AA?$CF?$AA0?$AA8?$AAx?$AA?5?$AAn?$AAx?$AAt?$AA?5?$AA?$CF?$AA0?$AA8?$AAx?$AA?5?$AAx?$AAf?$AAr@ 1000a650     ohcdmdd2:cpipe.obj
 0001:000096a0       ??_C@_1GE@NDKGCAEC@?$AAC?$AAP?$AAi?$AAp?$AAe?$AA?3?$AA?3?$AAC?$AAF?$AAD?$AAT?$AA?5?$AAD?$AAI?$AAS?$AAC?$AAA?$AAR?$AAD?$AAI?$AAN?$AAG?$AA?5?$AAt?$AAd?$AA?5?$AA?$CF?$AA0?$AA8?$AAx?$AA?5?$AAn@ 1000a6a0     ohcdmdd2:cpipe.obj
 0001:00009708       ??_C@_1FA@FAAPJPFE@?$AA?$CL?$AAC?$AAH?$AAC?$AAC?$AAA?$AAe?$AAr?$AAa?$AA?3?$AA?3?$AAC?$AAh?$AAe?$AAc?$AAk?$AAF?$AAo?$AAr?$AAD?$AAo?$AAn?$AAe?$AAT?$AAr?$AAa?$AAn?$AAs?$AAf?$AAe?$AAr?$AAs@ 1000a708     ohcdmdd2:cpipe.obj
 0001:00009758       ??_C@_1JK@FJEJAEOJ@?$AA?9?$AAC?$AAH?$AAC?$AAC?$AAA?$AAe?$AAr?$AAa?$AA?3?$AA?3?$AAA?$AAd?$AAd?$AAT?$AAo?$AAB?$AAu?$AAs?$AAy?$AAP?$AAi?$AAp?$AAe?$AAL?$AAi?$AAs?$AAt?$AA?5?$AA?9?$AA?5?$AAn@ 1000a758     ohcdmdd2:cpipe.obj
 0001:000097f8       ??_C@_1GE@KKBIHAMK@?$AA?$CL?$AAC?$AAH?$AAC?$AAC?$AAA?$AAe?$AAr?$AAa?$AA?3?$AA?3?$AAA?$AAd?$AAd?$AAT?$AAo?$AAB?$AAu?$AAs?$AAy?$AAP?$AAi?$AAp?$AAe?$AAL?$AAi?$AAs?$AAt?$AA?5?$AA?9?$AA?5?$AAn@ 1000a7f8     ohcdmdd2:cpipe.obj
 0001:00009860       ??_C@_1IO@LNHGLLPL@?$AA?9?$AAC?$AAH?$AAC?$AAC?$AAA?$AAe?$AAr?$AAa?$AA?3?$AA?3?$AAR?$AAe?$AAm?$AAo?$AAv?$AAe?$AAF?$AAr?$AAo?$AAm?$AAB?$AAu?$AAs?$AAy?$AAP?$AAi?$AAp?$AAe?$AAL?$AAi?$AAs@ 1000a860     ohcdmdd2:cpipe.obj
 0001:000098f0       ??_C@_1HE@GMILEJGJ@?$AA?9?$AAC?$AAH?$AAC?$AAC?$AAA?$AAe?$AAr?$AAa?$AA?3?$AA?3?$AAR?$AAe?$AAm?$AAo?$AAv?$AAe?$AAF?$AAr?$AAo?$AAm?$AAB?$AAu?$AAs?$AAy?$AAP?$AAi?$AAp?$AAe?$AAL?$AAi?$AAs@ 1000a8f0     ohcdmdd2:cpipe.obj
 0001:00009968       ??_C@_1GG@LEIAEDFO@?$AA?$CL?$AAC?$AAH?$AAC?$AAC?$AAA?$AAe?$AAr?$AAa?$AA?3?$AA?3?$AAR?$AAe?$AAm?$AAo?$AAv?$AAe?$AAF?$AAr?$AAo?$AAm?$AAB?$AAu?$AAs?$AAy?$AAP?$AAi?$AAp?$AAe?$AAL?$AAi?$AAs@ 1000a968     ohcdmdd2:cpipe.obj
 0001:000099d0       ??_C@_1FE@HALOIFIA@?$AA?9?$AAC?$AAP?$AAi?$AAp?$AAe?$AA?3?$AA?3?$AAH?$AAa?$AAn?$AAd?$AAl?$AAe?$AAR?$AAe?$AAc?$AAl?$AAa?$AAm?$AAa?$AAt?$AAi?$AAo?$AAn?$AAL?$AAo?$AAa?$AAd?$AAC?$AAh?$AAa@ 1000a9d0     ohcdmdd2:cpipe.obj
 0001:00009a28       ??_C@_1FE@HHMGEBGD@?$AA?$CL?$AAC?$AAP?$AAi?$AAp?$AAe?$AA?3?$AA?3?$AAH?$AAa?$AAn?$AAd?$AAl?$AAe?$AAR?$AAe?$AAc?$AAl?$AAa?$AAm?$AAa?$AAt?$AAi?$AAo?$AAn?$AAL?$AAo?$AAa?$AAd?$AAC?$AAh?$AAa@ 1000aa28     ohcdmdd2:cpipe.obj
 0001:00009a7c       ??_C@_1DI@LDDEIKII@?$AAR?$AAe?$AAm?$AAo?$AAv?$AAe?$AA?5?$AAR?$AAe?$AAc?$AAl?$AAa?$AAm?$AAa?$AAt?$AAi?$AAo?$AAn?$AA?5?$AAT?$AAr?$AAa?$AAn?$AAs?$AAf?$AAe?$AAr?$AA?$AA@ 1000aa7c     ohcdmdd2:cpipe.obj
 0001:00009ab4       ??_C@_1DC@GFONLFDP@?$AAA?$AAd?$AAd?$AA?5?$AAR?$AAe?$AAc?$AAl?$AAa?$AAm?$AAa?$AAt?$AAi?$AAo?$AAn?$AA?5?$AAT?$AAr?$AAa?$AAn?$AAs?$AAf?$AAe?$AAr?$AA?$AA@ 1000aab4     ohcdmdd2:cpipe.obj
 0001:00009ae8       ??_C@_1BO@FNFLKEKD@?$AA?9?$AAC?$AAP?$AAi?$AAp?$AAe?$AA?3?$AA?3?$AAC?$AAP?$AAi?$AAp?$AAe?$AA?6?$AA?$AA@ 1000aae8     ohcdmdd2:cpipe.obj
 0001:00009b08       ??_C@_1BO@NEBJOOJD@?$AA?$CL?$AAC?$AAP?$AAi?$AAp?$AAe?$AA?3?$AA?3?$AAC?$AAP?$AAi?$AAp?$AAe?$AA?6?$AA?$AA@ 1000ab08     ohcdmdd2:cpipe.obj
 0001:00009b28       ??_7CPipe@@6B@             1000ab28     ohcdmdd2:cpipe.obj
 0001:00009b6c       ??_7CPipeAbs@@6B@          1000ab6c     ohcdmdd2:cpipe.obj
 0001:00009b8c       ??_C@_1CM@PJIFHHPE@?$AA?4?$AA?4?$AA?2?$AAc?$AAo?$AAm?$AAm?$AAo?$AAn?$AA?2?$AAp?$AAi?$AAp?$AAe?$AAa?$AAb?$AAs?$AA?4?$AAh?$AAp?$AAp?$AA?$AA@ 1000ab8c     ohcdmdd2:cpipe.obj
 0001:00009bb8       ??_C@_1CA@EGGPAPJO@?$AA?9?$AAC?$AAP?$AAi?$AAp?$AAe?$AA?3?$AA?3?$AA?$HO?$AAC?$AAP?$AAi?$AAp?$AAe?$AA?6?$AA?$AA@ 1000abb8     ohcdmdd2:cpipe.obj
 0001:00009bd8       ??_C@_1CA@PCABIKB@?$AA?$CL?$AAC?$AAP?$AAi?$AAp?$AAe?$AA?3?$AA?3?$AA?$HO?$AAC?$AAP?$AAi?$AAp?$AAe?$AA?6?$AA?$AA@ 1000abd8     ohcdmdd2:cpipe.obj
 0001:00009bf8       ??_C@_1JI@LFEJLGMB@?$AA?9?$AAC?$AAP?$AAi?$AAp?$AAe?$AA?$CI?$AA?$CF?$AAs?$AA?$CJ?$AA?3?$AA?3?$AAI?$AAs?$AAP?$AAi?$AAp?$AAe?$AAH?$AAa?$AAl?$AAt?$AAe?$AAd?$AA?0?$AA?5?$AA?$CK?$AAl?$AAp?$AAb?$AAH?$AAa@ 1000abf8     ohcdmdd2:cpipe.obj
 0001:00009c90       ??_C@_1DE@MCCIDDLK@?$AA?$CL?$AAC?$AAP?$AAi?$AAp?$AAe?$AA?$CI?$AA?$CF?$AAs?$AA?$CJ?$AA?3?$AA?3?$AAI?$AAs?$AAP?$AAi?$AAp?$AAe?$AAH?$AAa?$AAl?$AAt?$AAe?$AAd?$AA?6?$AA?$AA@ 1000ac90     ohcdmdd2:cpipe.obj
 0001:00009cc4       ??_C@_1DK@INACOAAB@?$AA?9?$AAC?$AAP?$AAi?$AAp?$AAe?$AA?$CI?$AA?$CF?$AAs?$AA?$CJ?$AA?3?$AA?3?$AAC?$AAl?$AAe?$AAa?$AAr?$AAH?$AAa?$AAl?$AAt?$AAe?$AAd?$AAF?$AAl?$AAa?$AAg?$AA?6?$AA?$AA@ 1000acc4     ohcdmdd2:cpipe.obj
 0001:00009d00       ??_C@_1IE@IBNINFFO@?$AAC?$AAP?$AAi?$AAp?$AAe?$AA?$CI?$AA?$CF?$AAs?$AA?$CJ?$AA?3?$AA?3?$AAC?$AAl?$AAe?$AAa?$AAr?$AAH?$AAa?$AAl?$AAt?$AAe?$AAd?$AAF?$AAl?$AAa?$AAg?$AA?5?$AA?9?$AA?5?$AAw?$AAa?$AAr@ 1000ad00     ohcdmdd2:cpipe.obj
 0001:00009d84       ??_C@_1DK@OIOBMHCK@?$AA?$CL?$AAC?$AAP?$AAi?$AAp?$AAe?$AA?$CI?$AA?$CF?$AAs?$AA?$CJ?$AA?3?$AA?3?$AAC?$AAl?$AAe?$AAa?$AAr?$AAH?$AAa?$AAl?$AAt?$AAe?$AAd?$AAF?$AAl?$AAa?$AAg?$AA?6?$AA?$AA@ 1000ad84     ohcdmdd2:cpipe.obj
 0001:00009dc0       ??_C@_1DG@HGODKGLN@?$AA?9?$AAC?$AAQ?$AAu?$AAe?$AAu?$AAe?$AAd?$AAP?$AAi?$AAp?$AAe?$AA?3?$AA?3?$AAC?$AAQ?$AAu?$AAe?$AAu?$AAe?$AAd?$AAP?$AAi?$AAp?$AAe?$AA?6?$AA?$AA@ 1000adc0     ohcdmdd2:cpipe.obj
 0001:00009df8       ??_C@_1DG@HDDOFDAJ@?$AA?$CL?$AAC?$AAQ?$AAu?$AAe?$AAu?$AAe?$AAd?$AAP?$AAi?$AAp?$AAe?$AA?3?$AA?3?$AAC?$AAQ?$AAu?$AAe?$AAu?$AAe?$AAd?$AAP?$AAi?$AAp?$AAe?$AA?6?$AA?$AA@ 1000adf8     ohcdmdd2:cpipe.obj
 0001:00009e30       ??_7CQueuedPipe@@6B@       1000ae30     ohcdmdd2:cpipe.obj
 0001:00009e78       ??_C@_1DI@OKMEGAFJ@?$AA?9?$AAC?$AAQ?$AAu?$AAe?$AAu?$AAe?$AAd?$AAP?$AAi?$AAp?$AAe?$AA?3?$AA?3?$AA?$HO?$AAC?$AAQ?$AAu?$AAe?$AAu?$AAe?$AAd?$AAP?$AAi?$AAp?$AAe?$AA?6?$AA?$AA@ 1000ae78     ohcdmdd2:cpipe.obj
 0001:00009eb0       ??_C@_1DI@KHLKAIKL@?$AA?$CL?$AAC?$AAQ?$AAu?$AAe?$AAu?$AAe?$AAd?$AAP?$AAi?$AAp?$AAe?$AA?3?$AA?3?$AA?$HO?$AAC?$AAQ?$AAu?$AAe?$AAu?$AAe?$AAd?$AAP?$AAi?$AAp?$AAe?$AA?6?$AA?$AA@ 1000aeb0     ohcdmdd2:cpipe.obj
 0001:00009ee8       ??_C@_1DK@LBMNJMOL@?$AA?9?$AAC?$AAQ?$AAu?$AAe?$AAu?$AAe?$AAd?$AAP?$AAi?$AAp?$AAe?$AA?$CI?$AA?$CF?$AAs?$AA?$CJ?$AA?3?$AA?3?$AAC?$AAl?$AAo?$AAs?$AAe?$AAP?$AAi?$AAp?$AAe?$AA?6?$AA?$AA@ 1000aee8     ohcdmdd2:cpipe.obj
 0001:00009f28       ??_C@_1GC@GAJFFCMF@?$AA?$CB?$AAC?$AAQ?$AAu?$AAe?$AAu?$AAe?$AAd?$AAP?$AAi?$AAp?$AAe?$AA?$CI?$AA?$CF?$AAs?$AA?$CJ?$AA?3?$AA?3?$AAC?$AAl?$AAo?$AAs?$AAe?$AAP?$AAi?$AAp?$AAe?$AA?5?$AA?$CF?$AA0?$AA8?$AAx@ 1000af28     ohcdmdd2:cpipe.obj
 0001:00009f8c       ??_C@_1DK@NECOLLMA@?$AA?$CL?$AAC?$AAQ?$AAu?$AAe?$AAu?$AAe?$AAd?$AAP?$AAi?$AAp?$AAe?$AA?$CI?$AA?$CF?$AAs?$AA?$CJ?$AA?3?$AA?3?$AAC?$AAl?$AAo?$AAs?$AAe?$AAP?$AAi?$AAp?$AAe?$AA?6?$AA?$AA@ 1000af8c     ohcdmdd2:cpipe.obj
 0001:00009fc8       ??_C@_1IA@INGGDBIE@?$AAc?$AA?3?$AA?2?$AAy?$AAz?$AAk?$AAi?$AAq?$AAf?$AAe?$AA?2?$AAp?$AAu?$AAb?$AAl?$AAi?$AAc?$AA?2?$AAc?$AAo?$AAm?$AAm?$AAo?$AAn?$AA?2?$AAo?$AAa?$AAk?$AA?2?$AAd?$AAr?$AAi@ 1000afc8     ohcdmdd2:cpipe.obj
 0001:0000a048       ??_C@_1KC@DHMCDHFD@?$AA?9?$AAC?$AAP?$AAi?$AAp?$AAe?$AA?$CI?$AA?$CF?$AAs?$AA?$CJ?$AA?3?$AA?3?$AAI?$AAs?$AAs?$AAu?$AAe?$AAT?$AAr?$AAa?$AAn?$AAs?$AAf?$AAe?$AAr?$AA?5?$AA?9?$AA?5?$AAa?$AAd?$AAd?$AAr@ 1000b048     ohcdmdd2:cpipe.obj
 0001:0000a0f0       ??_C@_1JK@IFADILGI@?$AA?9?$AAC?$AAP?$AAi?$AAp?$AAe?$AA?$CI?$AA?$CF?$AAs?$AA?$CJ?$AA?3?$AA?3?$AAI?$AAs?$AAs?$AAu?$AAe?$AAT?$AAr?$AAa?$AAn?$AAs?$AAf?$AAe?$AAr?$AA?5?$AAc?$AAa?$AAn?$AAn?$AAo?$AAt@ 1000b0f0     ohcdmdd2:cpipe.obj
 0001:0000a190       ??_C@_1FC@PKJGBOEE@?$AA?$CL?$AAC?$AAP?$AAi?$AAp?$AAe?$AA?$CI?$AA?$CF?$AAs?$AA?$CJ?$AA?3?$AA?3?$AAI?$AAs?$AAs?$AAu?$AAe?$AAT?$AAr?$AAa?$AAn?$AAs?$AAf?$AAe?$AAr?$AA?0?$AA?5?$AAa?$AAd?$AAd?$AAr?$AAe@ 1000b190     ohcdmdd2:cpipe.obj
 0001:0000a1e8       ??_C@_1KO@FHDEKCOL@?$AA?9?$AAC?$AAQ?$AAu?$AAe?$AAu?$AAe?$AAd?$AAP?$AAi?$AAp?$AAe?$AA?$CI?$AA?$CF?$AAs?$AA?$CJ?$AA?3?$AA?3?$AAA?$AAb?$AAo?$AAr?$AAt?$AAT?$AAr?$AAa?$AAn?$AAs?$AAf?$AAe?$AAr?$AA?5@ 1000b1e8     ohcdmdd2:cpipe.obj
 0001:0000a298       ??_C@_1KC@DEIOLPMB@?$AAC?$AAQ?$AAu?$AAe?$AAu?$AAe?$AAd?$AAP?$AAi?$AAp?$AAe?$AA?3?$AA?3?$AAA?$AAb?$AAo?$AAr?$AAt?$AAT?$AAr?$AAa?$AAn?$AAs?$AAf?$AAe?$AAr?$AA?5?$AA?9?$AA?5?$AAe?$AAx?$AAc@ 1000b298     ohcdmdd2:cpipe.obj
 0001:0000a340       ??_C@_1GM@NGEPGNBL@?$AA?$CL?$AAC?$AAQ?$AAu?$AAe?$AAu?$AAe?$AAd?$AAP?$AAi?$AAp?$AAe?$AA?$CI?$AA?$CF?$AAs?$AA?$CJ?$AA?3?$AA?3?$AAA?$AAb?$AAo?$AAr?$AAt?$AAT?$AAr?$AAa?$AAn?$AAs?$AAf?$AAe?$AAr?$AA?5@ 1000b340     ohcdmdd2:cpipe.obj
 0001:0000a3b0       ??_C@_1HI@OGBOPCF@?$AA?$CB?$AA?$CB?$AA?$CB?$AA?$CB?$AAC?$AAQ?$AAu?$AAe?$AAu?$AAe?$AAd?$AAP?$AAi?$AAp?$AAe?$AA?3?$AA?3?$AAC?$AAh?$AAe?$AAc?$AAk?$AAF?$AAo?$AAr?$AAD?$AAo?$AAn?$AAe?$AAT?$AAr?$AAa@ 1000b3b0     ohcdmdd2:cpipe.obj
 0001:0000a428       ??_C@_1HI@BIHKKNLE@?$AA?9?$AAC?$AAQ?$AAu?$AAe?$AAu?$AAe?$AAd?$AAP?$AAi?$AAp?$AAe?$AA?$CI?$AA?$CF?$AAs?$AA?$CJ?$AA?3?$AA?3?$AAC?$AAh?$AAe?$AAc?$AAk?$AAF?$AAo?$AAr?$AAD?$AAo?$AAn?$AAe?$AAT?$AAr@ 1000b428     ohcdmdd2:cpipe.obj
 0001:0000a4a0       ??_C@_1HC@HFDJAIOH@?$AAC?$AAQ?$AAu?$AAe?$AAu?$AAe?$AAd?$AAP?$AAi?$AAp?$AAe?$AA?3?$AA?3?$AAC?$AAh?$AAe?$AAc?$AAk?$AAF?$AAo?$AAr?$AAD?$AAo?$AAn?$AAe?$AAT?$AAr?$AAa?$AAn?$AAs?$AAf?$AAe@ 1000b4a0     ohcdmdd2:cpipe.obj
 0001:0000a518       ??_C@_1JM@JENAICMC@?$AAC?$AAQ?$AAu?$AAe?$AAu?$AAe?$AAd?$AAP?$AAi?$AAp?$AAe?$AA?$CI?$AA?$CF?$AAs?$AA?$CJ?$AA?3?$AA?3?$AAC?$AAh?$AAe?$AAc?$AAk?$AAF?$AAo?$AAr?$AAD?$AAo?$AAn?$AAe?$AAT?$AAr?$AAa@ 1000b518     ohcdmdd2:cpipe.obj
 0001:0000a5b8       ??_C@_1FC@DDCKFNJF@?$AA?$CL?$AAC?$AAQ?$AAu?$AAe?$AAu?$AAe?$AAd?$AAP?$AAi?$AAp?$AAe?$AA?$CI?$AA?$CF?$AAs?$AA?$CJ?$AA?3?$AA?3?$AAC?$AAh?$AAe?$AAc?$AAk?$AAF?$AAo?$AAr?$AAD?$AAo?$AAn?$AAe?$AAT?$AAr@ 1000b5b8     ohcdmdd2:cpipe.obj
 0001:0000a610       ??_C@_1FK@EICOEOJF@?$AA?9?$AAC?$AAQ?$AAu?$AAe?$AAu?$AAe?$AAd?$AAP?$AAi?$AAp?$AAe?$AA?$CI?$AA?$CF?$AAs?$AA?$CJ?$AA?3?$AA?3?$AAU?$AAp?$AAd?$AAa?$AAt?$AAe?$AAI?$AAn?$AAt?$AAe?$AAr?$AAr?$AAu?$AAp@ 1000b610     ohcdmdd2:cpipe.obj
 0001:0000a670       ??_C@_1HI@PAPNJEAK@?$AAC?$AAQ?$AAu?$AAe?$AAu?$AAe?$AAd?$AAP?$AAi?$AAp?$AAe?$AA?$CI?$AA?$CF?$AAs?$AA?$CJ?$AA?3?$AA?3?$AAU?$AAp?$AAd?$AAa?$AAt?$AAe?$AAI?$AAn?$AAt?$AAe?$AAr?$AAr?$AAu?$AAp?$AAt@ 1000b670     ohcdmdd2:cpipe.obj
 0001:0000a6e8       ??_C@_1FK@GPKPPHFE@?$AA?$CL?$AAC?$AAQ?$AAu?$AAe?$AAu?$AAe?$AAd?$AAP?$AAi?$AAp?$AAe?$AA?$CI?$AA?$CF?$AAs?$AA?$CJ?$AA?3?$AA?3?$AAU?$AAp?$AAd?$AAa?$AAt?$AAe?$AAI?$AAn?$AAt?$AAe?$AAr?$AAr?$AAu?$AAp@ 1000b6e8     ohcdmdd2:cpipe.obj
 0001:0000a744       ??_C@_1CO@BAFFGEGA@?$AA?9?$AAC?$AAB?$AAu?$AAl?$AAk?$AAP?$AAi?$AAp?$AAe?$AA?3?$AA?3?$AAC?$AAB?$AAu?$AAl?$AAk?$AAP?$AAi?$AAp?$AAe?$AA?6?$AA?$AA@ 1000b744     ohcdmdd2:cpipe.obj
 0001:0000a774       ??_C@_1CO@MLJBDLEL@?$AA?$CL?$AAC?$AAB?$AAu?$AAl?$AAk?$AAP?$AAi?$AAp?$AAe?$AA?3?$AA?3?$AAC?$AAB?$AAu?$AAl?$AAk?$AAP?$AAi?$AAp?$AAe?$AA?6?$AA?$AA@ 1000b774     ohcdmdd2:cpipe.obj
 0001:0000a7a8       ??_7CBulkPipe@@6B@         1000b7a8     ohcdmdd2:cpipe.obj
 0001:0000a7f0       ??_C@_19PBJLGAMD@?$AAB?$AAu?$AAl?$AAk?$AA?$AA@ 1000b7f0     ohcdmdd2:cpipe.obj
 0001:0000a7fc       ??_C@_1DA@KHCPKGIF@?$AA?9?$AAC?$AAB?$AAu?$AAl?$AAk?$AAP?$AAi?$AAp?$AAe?$AA?3?$AA?3?$AA?$HO?$AAC?$AAB?$AAu?$AAl?$AAk?$AAP?$AAi?$AAp?$AAe?$AA?6?$AA?$AA@ 1000b7fc     ohcdmdd2:cpipe.obj
 0001:0000a82c       ??_C@_1DA@CKILMMEN@?$AA?$CL?$AAC?$AAB?$AAu?$AAl?$AAk?$AAP?$AAi?$AAp?$AAe?$AA?3?$AA?3?$AA?$HO?$AAC?$AAB?$AAu?$AAl?$AAk?$AAP?$AAi?$AAp?$AAe?$AA?6?$AA?$AA@ 1000b82c     ohcdmdd2:cpipe.obj
 0001:0000a860       ??_C@_1GO@DDNGLOEL@?$AA?9?$AAC?$AAB?$AAu?$AAl?$AAk?$AAP?$AAi?$AAp?$AAe?$AA?3?$AA?3?$AAO?$AAp?$AAe?$AAn?$AAP?$AAi?$AAp?$AAe?$AA?0?$AA?5?$AAr?$AAe?$AAt?$AAu?$AAr?$AAn?$AAi?$AAn?$AAg?$AA?5@ 1000b860     ohcdmdd2:cpipe.obj
 0001:0000a8d0       ??_C@_1GI@DGOBNEDM@?$AAC?$AAB?$AAu?$AAl?$AAk?$AAP?$AAi?$AAp?$AAe?$AA?3?$AA?3?$AAO?$AAp?$AAe?$AAn?$AAP?$AAi?$AAp?$AAe?$AA?5?$AA?9?$AA?5?$AAa?$AAl?$AAl?$AAo?$AAc?$AA?5?$AA1?$AA?5?$AAE?$AAD@ 1000b8d0     ohcdmdd2:cpipe.obj
 0001:0000a938       ??_C@_1FC@BGDCDIP@?$AA?9?$AAC?$AAB?$AAu?$AAl?$AAk?$AAP?$AAi?$AAp?$AAe?$AA?3?$AA?3?$AAO?$AAp?$AAe?$AAn?$AAP?$AAi?$AAp?$AAe?$AA?5?$AA?9?$AA?5?$AAn?$AAo?$AA?5?$AAm?$AAe?$AAm?$AAo?$AAr?$AAy@ 1000b938     ohcdmdd2:cpipe.obj
 0001:0000a98c       ??_C@_1BI@MDHKAFBD@?$AAO?$AAp?$AAe?$AAn?$AAP?$AAi?$AAp?$AAe?$AA?5?$AAE?$AAD?$AA?$AA@ 1000b98c     ohcdmdd2:cpipe.obj
 0001:0000a9a8       ??_C@_1FC@LBHCBCDK@?$AA?9?$AAC?$AAB?$AAu?$AAl?$AAk?$AAP?$AAi?$AAp?$AAe?$AA?3?$AA?3?$AAO?$AAp?$AAe?$AAn?$AAP?$AAi?$AAp?$AAe?$AA?5?$AA?9?$AA?5?$AAn?$AAo?$AA?5?$AAm?$AAe?$AAm?$AAo?$AAr?$AAy@ 1000b9a8     ohcdmdd2:cpipe.obj
 0001:0000a9fc       ??_C@_1CM@HNACDBOM@?$AA?$CL?$AAC?$AAB?$AAu?$AAl?$AAk?$AAP?$AAi?$AAp?$AAe?$AA?3?$AA?3?$AAO?$AAp?$AAe?$AAn?$AAP?$AAi?$AAp?$AAe?$AA?6?$AA?$AA@ 1000b9fc     ohcdmdd2:cpipe.obj
 0001:0000aa28       ??_C@_1HG@DDFHCFDD@?$AA?$CB?$AAC?$AAB?$AAu?$AAl?$AAk?$AAP?$AAi?$AAp?$AAe?$AA?3?$AA?3?$AAA?$AAr?$AAe?$AAT?$AAr?$AAa?$AAn?$AAs?$AAf?$AAe?$AAr?$AAP?$AAa?$AAr?$AAa?$AAm?$AAe?$AAt?$AAe?$AAr@ 1000ba28     ohcdmdd2:cpipe.obj
 0001:0000aaa0       ??_C@_1HO@IOFBGBFL@?$AA?9?$AAC?$AAB?$AAu?$AAl?$AAk?$AAP?$AAi?$AAp?$AAe?$AA?3?$AA?3?$AAS?$AAc?$AAh?$AAe?$AAd?$AAu?$AAl?$AAe?$AAT?$AAr?$AAa?$AAn?$AAs?$AAf?$AAe?$AAr?$AA?0?$AA?5?$AAr?$AAe@ 1000baa0     ohcdmdd2:cpipe.obj
 0001:0000ab20       ??_C@_1EG@NIDAMGHM@?$AA?$CL?$AAC?$AAB?$AAu?$AAl?$AAk?$AAP?$AAi?$AAp?$AAe?$AA?3?$AA?3?$AAS?$AAc?$AAh?$AAe?$AAd?$AAu?$AAl?$AAe?$AAT?$AAr?$AAa?$AAn?$AAs?$AAf?$AAe?$AAr?$AA?5?$AA?$CF?$AA0?$AA8@ 1000bb20     ohcdmdd2:cpipe.obj
 0001:0000ab68       ??_C@_1DK@PKKLHODC@?$AA?9?$AAC?$AAC?$AAo?$AAn?$AAt?$AAr?$AAo?$AAl?$AAP?$AAi?$AAp?$AAe?$AA?3?$AA?3?$AAC?$AAC?$AAo?$AAn?$AAt?$AAr?$AAo?$AAl?$AAP?$AAi?$AAp?$AAe?$AA?6?$AA?$AA@ 1000bb68     ohcdmdd2:cpipe.obj
 0001:0000aba4       ??_C@_1DK@JPEIFJBJ@?$AA?$CL?$AAC?$AAC?$AAo?$AAn?$AAt?$AAr?$AAo?$AAl?$AAP?$AAi?$AAp?$AAe?$AA?3?$AA?3?$AAC?$AAC?$AAo?$AAn?$AAt?$AAr?$AAo?$AAl?$AAP?$AAi?$AAp?$AAe?$AA?6?$AA?$AA@ 1000bba4     ohcdmdd2:cpipe.obj
 0001:0000abe0       ??_7CControlPipe@@6B@      1000bbe0     ohcdmdd2:cpipe.obj
 0001:0000ac28       ??_C@_1BA@JGFNDEFA@?$AAC?$AAo?$AAn?$AAt?$AAr?$AAo?$AAl?$AA?$AA@ 1000bc28     ohcdmdd2:cpipe.obj
 0001:0000ac38       ??_C@_1DM@HAHKKHKF@?$AA?9?$AAC?$AAC?$AAo?$AAn?$AAt?$AAr?$AAo?$AAl?$AAP?$AAi?$AAp?$AAe?$AA?3?$AA?3?$AA?$HO?$AAC?$AAC?$AAo?$AAn?$AAt?$AAr?$AAo?$AAl?$AAP?$AAi?$AAp?$AAe?$AA?6?$AA?$AA@ 1000bc38     ohcdmdd2:cpipe.obj
 0001:0000ac74       ??_C@_1DM@KDAAIKEE@?$AA?$CL?$AAC?$AAC?$AAo?$AAn?$AAt?$AAr?$AAo?$AAl?$AAP?$AAi?$AAp?$AAe?$AA?3?$AA?3?$AA?$HO?$AAC?$AAC?$AAo?$AAn?$AAt?$AAr?$AAo?$AAl?$AAP?$AAi?$AAp?$AAe?$AA?6?$AA?$AA@ 1000bc74     ohcdmdd2:cpipe.obj
 0001:0000acb0       ??_C@_1DC@GHHCAGFM@?$AA?9?$AAC?$AAC?$AAo?$AAn?$AAt?$AAr?$AAo?$AAl?$AAP?$AAi?$AAp?$AAe?$AA?3?$AA?3?$AAO?$AAp?$AAe?$AAn?$AAP?$AAi?$AAp?$AAe?$AA?6?$AA?$AA@ 1000bcb0     ohcdmdd2:cpipe.obj
 0001:0000ace8       ??_C@_1GO@JHBDJHHN@?$AAC?$AAC?$AAo?$AAn?$AAt?$AAr?$AAo?$AAl?$AAP?$AAi?$AAp?$AAe?$AA?3?$AA?3?$AAO?$AAp?$AAe?$AAn?$AAP?$AAi?$AAp?$AAe?$AA?5?$AA?9?$AA?5?$AAa?$AAl?$AAl?$AAo?$AAc?$AA?5?$AA1@ 1000bce8     ohcdmdd2:cpipe.obj
 0001:0000ad58       ??_C@_1FI@OLADJAFL@?$AA?9?$AAC?$AAC?$AAo?$AAn?$AAt?$AAr?$AAo?$AAl?$AAP?$AAi?$AAp?$AAe?$AA?3?$AA?3?$AAO?$AAp?$AAe?$AAn?$AAP?$AAi?$AAp?$AAe?$AA?5?$AA?9?$AA?5?$AAn?$AAo?$AA?5?$AAm?$AAe?$AAm@ 1000bd58     ohcdmdd2:cpipe.obj
 0001:0000adb0       ??_C@_1DC@MJDGFOPI@?$AA?$CL?$AAC?$AAC?$AAo?$AAn?$AAt?$AAr?$AAo?$AAl?$AAP?$AAi?$AAp?$AAe?$AA?3?$AA?3?$AAO?$AAp?$AAe?$AAn?$AAP?$AAi?$AAp?$AAe?$AA?6?$AA?$AA@ 1000bdb0     ohcdmdd2:cpipe.obj
 0001:0000ade8       ??_C@_1HM@OIBOFPNI@?$AA?9?$AAC?$AAC?$AAo?$AAn?$AAt?$AAr?$AAo?$AAl?$AAP?$AAi?$AAp?$AAe?$AA?3?$AA?3?$AAC?$AAh?$AAa?$AAn?$AAg?$AAe?$AAM?$AAa?$AAx?$AAP?$AAa?$AAc?$AAk?$AAe?$AAt?$AAS?$AAi@ 1000bde8     ohcdmdd2:cpipe.obj
 0001:0000ae68       ??_C@_1HM@LHJEGOH@?$AA?$CL?$AAC?$AAC?$AAo?$AAn?$AAt?$AAr?$AAo?$AAl?$AAP?$AAi?$AAp?$AAe?$AA?3?$AA?3?$AAC?$AAh?$AAa?$AAn?$AAg?$AAe?$AAM?$AAa?$AAx?$AAP?$AAa?$AAc?$AAk?$AAe?$AAt?$AAS?$AAi@ 1000be68     ohcdmdd2:cpipe.obj
 0001:0000aee8       ??_C@_1HM@GLJMKJHD@?$AA?9?$AAC?$AAC?$AAo?$AAn?$AAt?$AAr?$AAo?$AAl?$AAP?$AAi?$AAp?$AAe?$AA?3?$AA?3?$AAA?$AAr?$AAe?$AAT?$AAr?$AAa?$AAn?$AAs?$AAf?$AAe?$AAr?$AAP?$AAa?$AAr?$AAa?$AAm?$AAe@ 1000bee8     ohcdmdd2:cpipe.obj
 0001:0000af68       ??_C@_1FG@LOHNLBGH@?$AA?$CL?$AAC?$AAC?$AAo?$AAn?$AAt?$AAr?$AAo?$AAl?$AAP?$AAi?$AAp?$AAe?$AA?3?$AA?3?$AAA?$AAr?$AAe?$AAT?$AAr?$AAa?$AAn?$AAs?$AAf?$AAe?$AAr?$AAP?$AAa?$AAr?$AAa?$AAm?$AAe@ 1000bf68     ohcdmdd2:cpipe.obj
 0001:0000afc0       ??_C@_1EC@BPMOBCMB@?$AA?9?$AAC?$AAC?$AAo?$AAn?$AAt?$AAr?$AAo?$AAl?$AAP?$AAi?$AAp?$AAe?$AA?3?$AA?3?$AAS?$AAc?$AAh?$AAe?$AAd?$AAu?$AAl?$AAe?$AAT?$AAr?$AAa?$AAn?$AAs?$AAf?$AAe?$AAr?$AA?6@ 1000bfc0     ohcdmdd2:cpipe.obj
 0001:0000b008       ??_C@_1EC@HAMKPKMC@?$AA?$CL?$AAC?$AAC?$AAo?$AAn?$AAt?$AAr?$AAo?$AAl?$AAP?$AAi?$AAp?$AAe?$AA?3?$AA?3?$AAS?$AAc?$AAh?$AAe?$AAd?$AAu?$AAl?$AAe?$AAT?$AAr?$AAa?$AAn?$AAs?$AAf?$AAe?$AAr?$AA?6@ 1000c008     ohcdmdd2:cpipe.obj
 0001:0000b050       ??_C@_1EC@JEMMMPIH@?$AA?9?$AAC?$AAI?$AAn?$AAt?$AAe?$AAr?$AAr?$AAu?$AAp?$AAt?$AAP?$AAi?$AAp?$AAe?$AA?3?$AA?3?$AAC?$AAI?$AAn?$AAt?$AAe?$AAr?$AAr?$AAu?$AAp?$AAt?$AAP?$AAi?$AAp?$AAe?$AA?6@ 1000c050     ohcdmdd2:cpipe.obj
 0001:0000b098       ??_C@_1EC@PLMICHIE@?$AA?$CL?$AAC?$AAI?$AAn?$AAt?$AAe?$AAr?$AAr?$AAu?$AAp?$AAt?$AAP?$AAi?$AAp?$AAe?$AA?3?$AA?3?$AAC?$AAI?$AAn?$AAt?$AAe?$AAr?$AAr?$AAu?$AAp?$AAt?$AAP?$AAi?$AAp?$AAe?$AA?6@ 1000c098     ohcdmdd2:cpipe.obj
 0001:0000b0e0       ??_7CInterruptPipe@@6B@    1000c0e0     ohcdmdd2:cpipe.obj
 0001:0000b128       ??_C@_1BE@PBKDACKD@?$AAI?$AAn?$AAt?$AAe?$AAr?$AAr?$AAu?$AAp?$AAt?$AA?$AA@ 1000c128     ohcdmdd2:cpipe.obj
 0001:0000b140       ??_C@_1EE@DEJPNDGC@?$AA?9?$AAC?$AAI?$AAn?$AAt?$AAe?$AAr?$AAr?$AAu?$AAp?$AAt?$AAP?$AAi?$AAp?$AAe?$AA?3?$AA?3?$AA?$HO?$AAC?$AAI?$AAn?$AAt?$AAe?$AAr?$AAr?$AAu?$AAp?$AAt?$AAP?$AAi?$AAp?$AAe@ 1000c140     ohcdmdd2:cpipe.obj
 0001:0000b188       ??_C@_1EE@LBGDIFOP@?$AA?$CL?$AAC?$AAI?$AAn?$AAt?$AAe?$AAr?$AAr?$AAu?$AAp?$AAt?$AAP?$AAi?$AAp?$AAe?$AA?3?$AA?3?$AA?$HO?$AAC?$AAI?$AAn?$AAt?$AAe?$AAr?$AAr?$AAu?$AAp?$AAt?$AAP?$AAi?$AAp?$AAe@ 1000c188     ohcdmdd2:cpipe.obj
 0001:0000b1d0       ??_C@_1HI@FOEBHECD@?$AA?9?$AAC?$AAI?$AAn?$AAt?$AAe?$AAr?$AAr?$AAu?$AAp?$AAt?$AAP?$AAi?$AAp?$AAe?$AA?3?$AA?3?$AAO?$AAp?$AAe?$AAn?$AAP?$AAi?$AAp?$AAe?$AA?0?$AA?5?$AAr?$AAe?$AAt?$AAu?$AAr@ 1000c1d0     ohcdmdd2:cpipe.obj
 0001:0000b248       ??_C@_1OM@PLLNGEJ@?$AAC?$AAI?$AAn?$AAt?$AAe?$AAr?$AAr?$AAu?$AAp?$AAt?$AAP?$AAi?$AAp?$AAe?$AA?3?$AA?3?$AAO?$AAp?$AAe?$AAn?$AAP?$AAi?$AAp?$AAe?$AA?5?$AA?9?$AA?5?$AAi?$AAn?$AAs?$AAe?$AAr@ 1000c248     ohcdmdd2:cpipe.obj
 0001:0000b338       ??_C@_1KO@LEFHGHFA@?$AAC?$AAI?$AAn?$AAt?$AAe?$AAr?$AAr?$AAu?$AAp?$AAt?$AAP?$AAi?$AAp?$AAe?$AA?3?$AA?3?$AAO?$AAp?$AAe?$AAn?$AAP?$AAi?$AAp?$AAe?$AA?5?$AA?9?$AA?5?$AAw?$AAa?$AAr?$AAn?$AAi@ 1000c338     ohcdmdd2:cpipe.obj
 0001:0000b3e8       ??_C@_1KA@CAFMFKLF@?$AAC?$AAI?$AAn?$AAt?$AAe?$AAr?$AAr?$AAu?$AAp?$AAt?$AAP?$AAi?$AAp?$AAe?$AA?3?$AA?3?$AAO?$AAp?$AAe?$AAn?$AAP?$AAi?$AAp?$AAe?$AA?5?$AA?9?$AA?5?$AAs?$AAe?$AAt?$AAt?$AAi@ 1000c3e8     ohcdmdd2:cpipe.obj
 0001:0000b488       ??_C@_1HC@HAHLBEPK@?$AAC?$AAI?$AAn?$AAt?$AAe?$AAr?$AAr?$AAu?$AAp?$AAt?$AAP?$AAi?$AAp?$AAe?$AA?3?$AA?3?$AAO?$AAp?$AAe?$AAn?$AAP?$AAi?$AAp?$AAe?$AA?5?$AA?9?$AA?5?$AAa?$AAl?$AAl?$AAo?$AAc@ 1000c488     ohcdmdd2:cpipe.obj
 0001:0000b500       ??_C@_1FM@ODELIIAB@?$AA?9?$AAC?$AAI?$AAn?$AAt?$AAe?$AAr?$AAr?$AAu?$AAp?$AAt?$AAP?$AAi?$AAp?$AAe?$AA?3?$AA?3?$AAO?$AAp?$AAe?$AAn?$AAP?$AAi?$AAp?$AAe?$AA?5?$AA?9?$AA?5?$AAn?$AAo?$AA?5?$AAm@ 1000c500     ohcdmdd2:cpipe.obj
 0001:0000b55c       ??_C@_1DG@GPNELIPB@?$AA?$CL?$AAC?$AAI?$AAn?$AAt?$AAe?$AAr?$AAr?$AAu?$AAp?$AAt?$AAP?$AAi?$AAp?$AAe?$AA?3?$AA?3?$AAO?$AAp?$AAe?$AAn?$AAP?$AAi?$AAp?$AAe?$AA?6?$AA?$AA@ 1000c55c     ohcdmdd2:cpipe.obj
 0001:0000b598       ??_C@_1JE@PCNPLKAM@?$AA?9?$AAC?$AAI?$AAn?$AAt?$AAe?$AAr?$AAr?$AAu?$AAp?$AAt?$AAP?$AAi?$AAp?$AAe?$AA?3?$AA?3?$AAU?$AAp?$AAd?$AAa?$AAt?$AAe?$AAI?$AAn?$AAt?$AAe?$AAr?$AAr?$AAu?$AAp?$AAt@ 1000c598     ohcdmdd2:cpipe.obj
 0001:0000b630       ??_C@_1JE@HEDOHBB@?$AA?$CL?$AAC?$AAI?$AAn?$AAt?$AAe?$AAr?$AAr?$AAu?$AAp?$AAt?$AAP?$AAi?$AAp?$AAe?$AA?3?$AA?3?$AAU?$AAp?$AAd?$AAa?$AAt?$AAe?$AAI?$AAn?$AAt?$AAe?$AAr?$AAr?$AAu?$AAp?$AAt@ 1000c630     ohcdmdd2:cpipe.obj
 0001:0000b6c8       ??_C@_1IA@LIOLNNHC@?$AA?9?$AAC?$AAI?$AAn?$AAt?$AAe?$AAr?$AAr?$AAu?$AAp?$AAt?$AAP?$AAi?$AAp?$AAe?$AA?3?$AA?3?$AAA?$AAr?$AAe?$AAT?$AAr?$AAa?$AAn?$AAs?$AAf?$AAe?$AAr?$AAP?$AAa?$AAr?$AAa@ 1000c6c8     ohcdmdd2:cpipe.obj
 0001:0000b748       ??_C@_1FK@DKADEEOK@?$AA?$CL?$AAC?$AAI?$AAn?$AAt?$AAe?$AAr?$AAr?$AAu?$AAp?$AAt?$AAP?$AAi?$AAp?$AAe?$AA?3?$AA?3?$AAA?$AAr?$AAe?$AAT?$AAr?$AAa?$AAn?$AAs?$AAf?$AAe?$AAr?$AAP?$AAa?$AAr?$AAa@ 1000c748     ohcdmdd2:cpipe.obj
 0001:0000b7a8       ??_C@_1II@OOKDEGCN@?$AA?9?$AAC?$AAI?$AAn?$AAt?$AAe?$AAr?$AAr?$AAu?$AAp?$AAt?$AAP?$AAi?$AAp?$AAe?$AA?3?$AA?3?$AAS?$AAc?$AAh?$AAe?$AAd?$AAu?$AAl?$AAe?$AAT?$AAr?$AAa?$AAn?$AAs?$AAf?$AAe@ 1000c7a8     ohcdmdd2:cpipe.obj
 0001:0000b830       ??_C@_1HO@ILOPFK@?$AAC?$AAI?$AAn?$AAt?$AAe?$AAr?$AAr?$AAu?$AAp?$AAt?$AAP?$AAi?$AAp?$AAe?$AA?3?$AA?3?$AAS?$AAc?$AAh?$AAe?$AAd?$AAu?$AAl?$AAe?$AAT?$AAr?$AAa?$AAn?$AAs?$AAf?$AAe?$AAr@ 1000c830     ohcdmdd2:cpipe.obj
 0001:0000b8b0       ??_C@_1EG@NOMDIAOP@?$AA?$CL?$AAC?$AAI?$AAn?$AAt?$AAe?$AAr?$AAr?$AAu?$AAp?$AAt?$AAP?$AAi?$AAp?$AAe?$AA?3?$AA?3?$AAS?$AAc?$AAh?$AAe?$AAd?$AAu?$AAl?$AAe?$AAT?$AAr?$AAa?$AAn?$AAs?$AAf?$AAe@ 1000c8b0     ohcdmdd2:cpipe.obj
 0001:0000b8f8       ??_C@_1EK@KOEDIKFD@?$AA?9?$AAC?$AAI?$AAs?$AAo?$AAc?$AAh?$AAr?$AAo?$AAn?$AAo?$AAu?$AAs?$AAP?$AAi?$AAp?$AAe?$AA?3?$AA?3?$AAC?$AAI?$AAs?$AAo?$AAc?$AAh?$AAr?$AAo?$AAn?$AAo?$AAu?$AAs?$AAP@ 1000c8f8     ohcdmdd2:cpipe.obj
 0001:0000b948       ??_C@_1EK@JAHAMHEK@?$AA?$CL?$AAC?$AAI?$AAs?$AAo?$AAc?$AAh?$AAr?$AAo?$AAn?$AAo?$AAu?$AAs?$AAP?$AAi?$AAp?$AAe?$AA?3?$AA?3?$AAC?$AAI?$AAs?$AAo?$AAc?$AAh?$AAr?$AAo?$AAn?$AAo?$AAu?$AAs?$AAP@ 1000c948     ohcdmdd2:cpipe.obj
 0001:0000b998       ??_7CIsochronousPipe@@6B@  1000c998     ohcdmdd2:cpipe.obj
 0001:0000b9dc       ??_C@_1BI@FKFHNGHF@?$AAI?$AAs?$AAo?$AAc?$AAh?$AAr?$AAo?$AAn?$AAo?$AAu?$AAs?$AA?$AA@ 1000c9dc     ohcdmdd2:cpipe.obj
 0001:0000b9f8       ??_C@_1EM@BLDMLENC@?$AA?9?$AAC?$AAI?$AAs?$AAo?$AAc?$AAh?$AAr?$AAo?$AAn?$AAo?$AAu?$AAs?$AAP?$AAi?$AAp?$AAe?$AA?3?$AA?3?$AA?$HO?$AAC?$AAI?$AAs?$AAo?$AAc?$AAh?$AAr?$AAo?$AAn?$AAo?$AAu?$AAs@ 1000c9f8     ohcdmdd2:cpipe.obj
 0001:0000ba48       ??_C@_1EM@IIFBBONE@?$AA?$CL?$AAC?$AAI?$AAs?$AAo?$AAc?$AAh?$AAr?$AAo?$AAn?$AAo?$AAu?$AAs?$AAP?$AAi?$AAp?$AAe?$AA?3?$AA?3?$AA?$HO?$AAC?$AAI?$AAs?$AAo?$AAc?$AAh?$AAr?$AAo?$AAn?$AAo?$AAu?$AAs@ 1000ca48     ohcdmdd2:cpipe.obj
 0001:0000ba98       ??_C@_1HM@GAFPALLL@?$AA?9?$AAC?$AAI?$AAs?$AAo?$AAc?$AAh?$AAr?$AAo?$AAn?$AAo?$AAu?$AAs?$AAP?$AAi?$AAp?$AAe?$AA?3?$AA?3?$AAO?$AAp?$AAe?$AAn?$AAP?$AAi?$AAp?$AAe?$AA?0?$AA?5?$AAr?$AAe?$AAt@ 1000ca98     ohcdmdd2:cpipe.obj
 0001:0000bb18       ??_C@_1HG@OMNMCHHB@?$AAC?$AAI?$AAs?$AAo?$AAc?$AAh?$AAr?$AAo?$AAn?$AAo?$AAu?$AAs?$AAP?$AAi?$AAp?$AAe?$AA?3?$AA?3?$AAO?$AAp?$AAe?$AAn?$AAP?$AAi?$AAp?$AAe?$AA?5?$AA?9?$AA?5?$AAa?$AAl?$AAl@ 1000cb18     ohcdmdd2:cpipe.obj
 0001:0000bb90       ??_C@_1GA@HPFNKMGK@?$AA?9?$AAC?$AAI?$AAs?$AAo?$AAc?$AAh?$AAr?$AAo?$AAn?$AAo?$AAu?$AAs?$AAP?$AAi?$AAp?$AAe?$AA?3?$AA?3?$AAO?$AAp?$AAe?$AAn?$AAP?$AAi?$AAp?$AAe?$AA?5?$AA?9?$AA?5?$AAn?$AAo@ 1000cb90     ohcdmdd2:cpipe.obj
 0001:0000bbf0       ??_C@_1GA@MPEMJNNP@?$AA?9?$AAC?$AAI?$AAs?$AAo?$AAc?$AAh?$AAr?$AAo?$AAn?$AAo?$AAu?$AAs?$AAP?$AAi?$AAp?$AAe?$AA?3?$AA?3?$AAO?$AAp?$AAe?$AAn?$AAP?$AAi?$AAp?$AAe?$AA?5?$AA?9?$AA?5?$AAn?$AAo@ 1000cbf0     ohcdmdd2:cpipe.obj
 0001:0000bc50       ??_C@_1DK@OPNDEICN@?$AA?$CL?$AAC?$AAI?$AAs?$AAo?$AAc?$AAh?$AAr?$AAo?$AAn?$AAo?$AAu?$AAs?$AAP?$AAi?$AAp?$AAe?$AA?3?$AA?3?$AAO?$AAp?$AAe?$AAn?$AAP?$AAi?$AAp?$AAe?$AA?6?$AA?$AA@ 1000cc50     ohcdmdd2:cpipe.obj
 0001:0000bc8c       ??_C@_1DM@HPKHCFDD@?$AA?9?$AAC?$AAI?$AAs?$AAo?$AAc?$AAh?$AAr?$AAo?$AAn?$AAo?$AAu?$AAs?$AAP?$AAi?$AAp?$AAe?$AA?3?$AA?3?$AAC?$AAl?$AAo?$AAs?$AAe?$AAP?$AAi?$AAp?$AAe?$AA?6?$AA?$AA@ 1000cc8c     ohcdmdd2:cpipe.obj
 0001:0000bcc8       ??_C@_1FM@PLDCMBML@?$AA?$CB?$AAC?$AAI?$AAs?$AAo?$AAc?$AAh?$AAr?$AAo?$AAn?$AAo?$AAu?$AAs?$AA?3?$AA?3?$AAC?$AAl?$AAo?$AAs?$AAe?$AAP?$AAi?$AAp?$AAe?$AA?5?$AA?$CF?$AA0?$AA8?$AAx?$AA?5?$AAd?$AAo@ 1000ccc8     ohcdmdd2:cpipe.obj
 0001:0000bd24       ??_C@_1DM@KMNNAINC@?$AA?$CL?$AAC?$AAI?$AAs?$AAo?$AAc?$AAh?$AAr?$AAo?$AAn?$AAo?$AAu?$AAs?$AAP?$AAi?$AAp?$AAe?$AA?3?$AA?3?$AAC?$AAl?$AAo?$AAs?$AAe?$AAP?$AAi?$AAp?$AAe?$AA?6?$AA?$AA@ 1000cd24     ohcdmdd2:cpipe.obj
 0001:0000bd60       ??_C@_1IE@CBHPGNEK@?$AAC?$AAI?$AAs?$AAo?$AAc?$AAh?$AAr?$AAo?$AAn?$AAo?$AAu?$AAs?$AAP?$AAi?$AAp?$AAe?$AA?3?$AA?3?$AAI?$AAs?$AAs?$AAu?$AAe?$AAT?$AAr?$AAa?$AAn?$AAs?$AAf?$AAe?$AAr?$AA?$CI@ 1000cd60     ohcdmdd2:cpipe.obj
 0001:0000bde8       ??_C@_1LC@JOGANEGE@?$AA?$CB?$AAC?$AAI?$AAs?$AAo?$AAc?$AAh?$AAr?$AAo?$AAn?$AAo?$AAu?$AAs?$AAP?$AAi?$AAp?$AAe?$AA?3?$AA?3?$AAA?$AAd?$AAd?$AAT?$AAr?$AAa?$AAn?$AAs?$AAf?$AAe?$AAr?$AA?5?$AA?9@ 1000cde8     ohcdmdd2:cpipe.obj
 0001:0000bea0       ??_C@_1FI@HKBKKPKL@?$AA?9?$AAC?$AAI?$AAs?$AAo?$AAc?$AAh?$AAr?$AAo?$AAn?$AAo?$AAu?$AAs?$AAP?$AAi?$AAp?$AAe?$AA?3?$AA?3?$AAA?$AAb?$AAo?$AAr?$AAt?$AAT?$AAr?$AAa?$AAn?$AAs?$AAf?$AAe?$AAr@ 1000cea0     ohcdmdd2:cpipe.obj
 0001:0000bef8       ??_C@_1KM@KKLHDMPD@?$AAC?$AAI?$AAs?$AAo?$AAc?$AAh?$AAr?$AAo?$AAn?$AAo?$AAu?$AAs?$AAP?$AAi?$AAp?$AAe?$AA?3?$AA?3?$AAA?$AAb?$AAo?$AAr?$AAt?$AAT?$AAr?$AAa?$AAn?$AAs?$AAf?$AAe?$AAr?$AA?5@ 1000cef8     ohcdmdd2:cpipe.obj
 0001:0000bfa8       ??_C@_1HM@DCGGJNJP@?$AAC?$AAI?$AAs?$AAo?$AAc?$AAh?$AAr?$AAo?$AAn?$AAo?$AAu?$AAs?$AAP?$AAi?$AAp?$AAe?$AA?3?$AA?3?$AAA?$AAb?$AAo?$AAr?$AAt?$AAT?$AAr?$AAa?$AAn?$AAs?$AAf?$AAe?$AAr?$AA?5@ 1000cfa8     ohcdmdd2:cpipe.obj
 0001:0000c028       ??_C@_1EE@GNCAFEJO@?$AA?$CL?$AAC?$AAI?$AAs?$AAo?$AAc?$AAh?$AAr?$AAo?$AAn?$AAo?$AAu?$AAs?$AAP?$AAi?$AAp?$AAe?$AA?3?$AA?3?$AAA?$AAb?$AAo?$AAr?$AAt?$AAT?$AAr?$AAa?$AAn?$AAs?$AAf?$AAe?$AAr@ 1000d028     ohcdmdd2:cpipe.obj
 0001:0000c070       ??_C@_1IE@HJGDLHPI@?$AA?9?$AAC?$AAI?$AAs?$AAo?$AAc?$AAh?$AAr?$AAo?$AAn?$AAo?$AAu?$AAs?$AAP?$AAi?$AAp?$AAe?$AA?3?$AA?3?$AAA?$AAr?$AAe?$AAT?$AAr?$AAa?$AAn?$AAs?$AAf?$AAe?$AAr?$AAP?$AAa@ 1000d070     ohcdmdd2:cpipe.obj
 0001:0000c0f8       ??_C@_1FO@GGCPAHGF@?$AA?$CL?$AAC?$AAI?$AAs?$AAo?$AAc?$AAh?$AAr?$AAo?$AAn?$AAo?$AAu?$AAs?$AAP?$AAi?$AAp?$AAe?$AA?3?$AA?3?$AAA?$AAr?$AAe?$AAT?$AAr?$AAa?$AAn?$AAs?$AAf?$AAe?$AAr?$AAP?$AAa@ 1000d0f8     ohcdmdd2:cpipe.obj
 0001:0000c158       ??_C@_1IM@CFAIJLEK@?$AA?9?$AAC?$AAI?$AAs?$AAo?$AAc?$AAh?$AAr?$AAo?$AAn?$AAo?$AAu?$AAs?$AAP?$AAi?$AAp?$AAe?$AA?3?$AA?3?$AAS?$AAc?$AAh?$AAe?$AAd?$AAu?$AAl?$AAe?$AAT?$AAr?$AAa?$AAn?$AAs@ 1000d158     ohcdmdd2:cpipe.obj
 0001:0000c1e8       ??_C@_1GA@DNEONCFH@?$AAC?$AAI?$AAs?$AAo?$AAc?$AAh?$AAr?$AAo?$AAn?$AAo?$AAu?$AAs?$AAP?$AAi?$AAp?$AAe?$AA?3?$AA?3?$AAS?$AAc?$AAh?$AAe?$AAd?$AAu?$AAl?$AAe?$AAT?$AAr?$AAa?$AAn?$AAs?$AAf@ 1000d1e8     ohcdmdd2:cpipe.obj
 0001:0000c248       ??_C@_1EK@GADJNDHH@?$AA?$CL?$AAC?$AAI?$AAs?$AAo?$AAc?$AAh?$AAr?$AAo?$AAn?$AAo?$AAu?$AAs?$AAP?$AAi?$AAp?$AAe?$AA?3?$AA?3?$AAS?$AAc?$AAh?$AAe?$AAd?$AAu?$AAl?$AAe?$AAT?$AAr?$AAa?$AAn?$AAs@ 1000d248     ohcdmdd2:cpipe.obj
 0001:0000c298       ??_C@_1GM@IJALDBHH@?$AA?9?$AAC?$AAI?$AAs?$AAo?$AAc?$AAh?$AAr?$AAo?$AAn?$AAo?$AAu?$AAs?$AAP?$AAi?$AAp?$AAe?$AA?3?$AA?3?$AAC?$AAh?$AAe?$AAc?$AAk?$AAF?$AAo?$AAr?$AAD?$AAo?$AAn?$AAe?$AAT@ 1000d298     ohcdmdd2:cpipe.obj
 0001:0000c308       ??_C@_1IG@KOHHFEO@?$AAC?$AAh?$AAe?$AAc?$AAk?$AAF?$AAo?$AAr?$AAD?$AAo?$AAn?$AAe?$AAT?$AAr?$AAa?$AAn?$AAs?$AAf?$AAe?$AAr?$AAs?$AA?3?$AA?3?$AAC?$AAh?$AAe?$AAc?$AAk?$AAF?$AAo?$AAr?$AAD@ 1000d308     ohcdmdd2:cpipe.obj
 0001:0000c390       ??_C@_1FE@HLBAALFH@?$AA?$CL?$AAC?$AAI?$AAs?$AAo?$AAc?$AAh?$AAr?$AAo?$AAn?$AAo?$AAu?$AAs?$AAP?$AAi?$AAp?$AAe?$AA?3?$AA?3?$AAC?$AAh?$AAe?$AAc?$AAk?$AAF?$AAo?$AAr?$AAD?$AAo?$AAn?$AAe?$AAT@ 1000d390     ohcdmdd2:cpipe.obj
 0001:0000c3e8       ??_7CHW@@6B@               1000d3e8     ohcdmdd2:chw.obj
 0001:0000c448       ??_C@_1HG@LOOJHEOH@?$AAc?$AA?3?$AA?2?$AAy?$AAz?$AAk?$AAi?$AAq?$AAf?$AAe?$AA?2?$AAp?$AAu?$AAb?$AAl?$AAi?$AAc?$AA?2?$AAc?$AAo?$AAm?$AAm?$AAo?$AAn?$AA?2?$AAo?$AAa?$AAk?$AA?2?$AAd?$AAr?$AAi@ 1000d448     ohcdmdd2:chw.obj
 0001:0000c4c0       ??_C@_1DI@MBIOGDIA@?$AA?9?$AAC?$AAH?$AAW?$AA?3?$AA?3?$AAI?$AAn?$AAi?$AAt?$AAi?$AAa?$AAl?$AAi?$AAz?$AAe?$AA?0?$AA?5?$AAs?$AAu?$AAc?$AAc?$AAe?$AAs?$AAs?$AA?$CB?$AA?6?$AA?$AA@ 1000d4c0     ohcdmdd2:chw.obj
 0001:0000c4f8       ??_C@_1EM@OLPEIAAA@?$AA?9?$AAC?$AAH?$AAW?$AA?3?$AA?3?$AAI?$AAn?$AAi?$AAt?$AAi?$AAa?$AAl?$AAi?$AAz?$AAe?$AA?4?$AA?5?$AAE?$AAr?$AAr?$AAo?$AAr?$AA?5?$AAc?$AAr?$AAe?$AAa?$AAt?$AAi?$AAn?$AAg@ 1000d4f8     ohcdmdd2:chw.obj
 0001:0000c548       ??_C@_1GC@NNLMHGPK@?$AA?9?$AAC?$AAH?$AAW?$AA?3?$AA?3?$AAI?$AAn?$AAi?$AAt?$AAi?$AAa?$AAl?$AAi?$AAz?$AAe?$AA?4?$AA?5?$AAE?$AAr?$AAr?$AAo?$AAr?$AA?5?$AAo?$AAn?$AA?5?$AAI?$AAn?$AAt?$AAe?$AAr@ 1000d548     ohcdmdd2:chw.obj
 0001:0000c5b0       ??_C@_1II@JKJEGADD@?$AA?9?$AAC?$AAH?$AAW?$AA?3?$AA?3?$AAI?$AAn?$AAi?$AAt?$AAi?$AAa?$AAl?$AAi?$AAz?$AAe?$AA?4?$AA?5?$AAE?$AAr?$AAr?$AAo?$AAr?$AA?5?$AAc?$AAr?$AAe?$AAa?$AAt?$AAi?$AAn?$AAg@ 1000d5b0     ohcdmdd2:chw.obj
 0001:0000c638       ??_C@_1CI@PDGGFMNF@?$AAC?$AAH?$AAW?$AA?3?$AA?3?$AAI?$AAn?$AAi?$AAt?$AAi?$AAa?$AAl?$AAi?$AAz?$AAe?$AA?5?$AA?9?$AA?5?$AA?6?$AA?$AA@ 1000d638     ohcdmdd2:chw.obj
 0001:0000c660       ??_C@_1EI@JANJKMEP@?$AAC?$AAH?$AAW?$AA?3?$AA?3?$AAI?$AAn?$AAi?$AAt?$AAi?$AAa?$AAl?$AAi?$AAz?$AAe?$AA?5?$AA?9?$AA?5?$AAi?$AAn?$AAi?$AAt?$AAi?$AAn?$AAg?$AA?5?$AAs?$AAc?$AAh?$AAe?$AAd?$AAu@ 1000d660     ohcdmdd2:chw.obj
 0001:0000c6a8       ??_C@_1EC@NIFKMAGH@?$AAC?$AAH?$AAW?$AA?3?$AA?3?$AAI?$AAn?$AAi?$AAt?$AAi?$AAa?$AAl?$AAi?$AAz?$AAe?$AA?5?$AA?9?$AA?5?$AAe?$AAn?$AAd?$AA?5?$AAH?$AA?1?$AAW?$AA?5?$AAr?$AAe?$AAs?$AAe?$AAt?$AA?6@ 1000d6a8     ohcdmdd2:chw.obj
 0001:0000c6f0       ??_C@_1FA@PGHKCMOA@?$AAC?$AAH?$AAW?$AA?3?$AA?3?$AAI?$AAn?$AAi?$AAt?$AAi?$AAa?$AAl?$AAi?$AAz?$AAe?$AA?5?$AA?9?$AA?5?$AAs?$AAi?$AAg?$AAn?$AAa?$AAl?$AAl?$AAi?$AAn?$AAg?$AA?5?$AAH?$AA?1?$AAW@ 1000d6f0     ohcdmdd2:chw.obj
 0001:0000c740       ??_C@_1FE@OMBJLCF@?$AA?9?$AAC?$AAH?$AAW?$AA?3?$AA?3?$AAI?$AAn?$AAi?$AAt?$AAi?$AAa?$AAl?$AAi?$AAz?$AAe?$AA?0?$AA?5?$AAc?$AAa?$AAn?$AAn?$AAo?$AAt?$AA?5?$AAa?$AAl?$AAl?$AAo?$AAc?$AAa?$AAt@ 1000d740     ohcdmdd2:chw.obj
 0001:0000c798       ??_C@_1EA@DCNJHFCC@?$AAC?$AAH?$AAW?$AA?3?$AA?3?$AAI?$AAn?$AAi?$AAt?$AAi?$AAa?$AAl?$AAi?$AAz?$AAe?$AA?5?$AA?9?$AA?5?$AAB?$AAI?$AAO?$AAS?$AA?5?$AAA?$AAc?$AAt?$AAi?$AAv?$AAe?$AA?5?$AA?6?$AA?$AA@ 1000d798     ohcdmdd2:chw.obj
 0001:0000c7d8       ??_C@_1GG@EJFFHPJG@?$AAC?$AAH?$AAW?$AA?3?$AA?3?$AAI?$AAn?$AAi?$AAt?$AAi?$AAa?$AAl?$AAi?$AAz?$AAe?$AA?5?$AA?9?$AA?5?$AAS?$AAM?$AAM?$AA?5?$AAA?$AAc?$AAt?$AAi?$AAv?$AAe?$AA?0?$AA?5?$AAC?$AAa@ 1000d7d8     ohcdmdd2:chw.obj
 0001:0000c840       ??_C@_1FG@FBCIOJGK@?$AAC?$AAH?$AAW?$AA?3?$AA?3?$AAI?$AAn?$AAi?$AAt?$AAi?$AAa?$AAl?$AAi?$AAz?$AAe?$AA?5?$AA?9?$AA?5?$AAS?$AAM?$AAM?$AA?5?$AAA?$AAc?$AAt?$AAi?$AAv?$AAe?$AA?0?$AA?5?$AAD?$AAi@ 1000d840     ohcdmdd2:chw.obj
 0001:0000c898       ??_C@_1EO@ICAPHDAA@?$AA?9?$AAC?$AAH?$AAW?$AA?3?$AA?3?$AAI?$AAn?$AAi?$AAt?$AAi?$AAa?$AAl?$AAi?$AAz?$AAe?$AA?5?$AA?9?$AA?5?$AAz?$AAe?$AAr?$AAo?$AA?5?$AAR?$AAe?$AAg?$AAi?$AAs?$AAt?$AAe?$AAr@ 1000d898     ohcdmdd2:chw.obj
 0001:0000c8e8       ??_C@_1HK@OJEIJBJJ@?$AAC?$AA?3?$AA?2?$AAy?$AAz?$AAk?$AAi?$AAq?$AAf?$AAe?$AA?2?$AAp?$AAu?$AAb?$AAl?$AAi?$AAc?$AA?2?$AAC?$AAO?$AAM?$AAM?$AAO?$AAN?$AA?2?$AAo?$AAa?$AAk?$AA?2?$AAd?$AAr?$AAi@ 1000d8e8     ohcdmdd2:chw.obj
 0001:0000c968       ??_C@_1EO@LGMEKEEG@?$AA?$CL?$AAC?$AAH?$AAW?$AA?3?$AA?3?$AAI?$AAn?$AAi?$AAt?$AAi?$AAa?$AAl?$AAi?$AAz?$AAe?$AA?5?$AAb?$AAa?$AAs?$AAe?$AA?$DN?$AA0?$AAx?$AA?$CF?$AAx?$AA?0?$AA?5?$AAi?$AAn?$AAt?$AAr@ 1000d968     ohcdmdd2:chw.obj
 0001:0000c9b8       ??_C@_1DK@FFAMHNIM@?$AA?9?$AAC?$AAH?$AAW?$AA?3?$AA?3?$AAE?$AAn?$AAt?$AAe?$AAr?$AAO?$AAp?$AAe?$AAr?$AAa?$AAt?$AAi?$AAo?$AAn?$AAa?$AAl?$AAS?$AAt?$AAa?$AAt?$AAe?$AA?6?$AA?$AA@ 1000d9b8     ohcdmdd2:chw.obj
 0001:0000c9f8       ??_C@_1GK@MLODPEHP@?$AAC?$AAH?$AAW?$AA?3?$AA?3?$AAE?$AAn?$AAt?$AAe?$AAr?$AAO?$AAp?$AAe?$AAr?$AAa?$AAt?$AAi?$AAo?$AAn?$AAa?$AAl?$AAS?$AAt?$AAa?$AAt?$AAe?$AA?5?$AA?9?$AA?5?$AAs?$AAe?$AAt@ 1000d9f8     ohcdmdd2:chw.obj
 0001:0000ca64       ??_C@_1DK@DAOPFKKH@?$AA?$CL?$AAC?$AAH?$AAW?$AA?3?$AA?3?$AAE?$AAn?$AAt?$AAe?$AAr?$AAO?$AAp?$AAe?$AAr?$AAa?$AAt?$AAi?$AAo?$AAn?$AAa?$AAl?$AAS?$AAt?$AAa?$AAt?$AAe?$AA?6?$AA?$AA@ 1000da64     ohcdmdd2:chw.obj
 0001:0000caa0       ??_C@_1EK@GAECAPCH@?$AA?$CL?$AAC?$AAH?$AAW?$AA?3?$AA?3?$AAL?$AAi?$AAs?$AAt?$AAC?$AAo?$AAn?$AAt?$AAr?$AAo?$AAl?$AA?5?$AA?$CF?$AAx?$AA?5?$AAe?$AAn?$AAa?$AA?3?$AA?$CF?$AAd?$AA?5?$AAf?$AAi?$AAl?$AAl@ 1000daa0     ohcdmdd2:chw.obj
 0001:0000caf0       ??_C@_1GK@GGOFBDKF@?$AAU?$AAS?$AAB?$AA?5?$AAc?$AAa?$AAn?$AAn?$AAo?$AAt?$AA?5?$AAr?$AAe?$AAi?$AAn?$AAi?$AAt?$AA?5?$AAt?$AAh?$AAe?$AA?5?$AAH?$AAC?$AAD?$AA?5?$AAa?$AAt?$AA?5?$AAC?$AAE?$AA?5@ 1000daf0     ohcdmdd2:chw.obj
 0001:0000cb60       ??_C@_1HG@GIFCOHKJ@?$AAC?$AAH?$AAW?$AA?3?$AA?3?$AAS?$AAe?$AAt?$AAC?$AAa?$AAp?$AAa?$AAb?$AAi?$AAl?$AAi?$AAt?$AAy?$AA?4?$AA?5?$AAR?$AAe?$AAm?$AAo?$AAt?$AAe?$AAW?$AAa?$AAk?$AAe?$AA?5?$AAi@ 1000db60     ohcdmdd2:chw.obj
 0001:0000cbd8       ??_C@_1EE@FFCLNAAM@?$AA?9?$AAC?$AAH?$AAW?$AA?3?$AA?3?$AAL?$AAe?$AAa?$AAv?$AAi?$AAn?$AAg?$AA?5?$AAU?$AAS?$AAB?$AAI?$AAn?$AAt?$AAe?$AAr?$AAr?$AAu?$AAp?$AAt?$AAT?$AAh?$AAr?$AAe?$AAa?$AAd@ 1000dbd8     ohcdmdd2:chw.obj
 0001:0000cc20       ??_C@_1LC@EPNFIBFE@?$AAH?$AAC?$AAD?$AA?5?$AAI?$AAS?$AAT?$AA?3?$AA?5?$AAc?$AAa?$AAn?$AAn?$AAo?$AAt?$AA?5?$AAs?$AAp?$AAi?$AAn?$AA?5?$AAa?$AA?5?$AAn?$AAe?$AAw?$AA?5?$AAt?$AAh?$AAr?$AAe?$AAa@ 1000dc20     ohcdmdd2:chw.obj
 0001:0000ccd8       ??_C@_1HO@MHEKKDMJ@?$AA?$CB?$AA?$CB?$AA?$CB?$AAi?$AAn?$AAt?$AAe?$AAr?$AAr?$AAu?$AAp?$AAt?$AA?$CB?$AA?$CB?$AA?$CB?$AA?$CB?$AA?5?$AAo?$AAn?$AA?5?$AAf?$AAr?$AAa?$AAm?$AAe?$AA?5?$AAi?$AAn?$AAd?$AAe?$AAx?$AA?5@ 1000dcd8     ohcdmdd2:chw.obj
 0001:0000cd58       ??_C@_1EE@MDIPFHOI@?$AA?$CL?$AAC?$AAH?$AAW?$AA?3?$AA?3?$AAE?$AAn?$AAt?$AAe?$AAr?$AAe?$AAd?$AA?5?$AAU?$AAS?$AAB?$AAI?$AAn?$AAt?$AAe?$AAr?$AAr?$AAu?$AAp?$AAt?$AAT?$AAh?$AAr?$AAe?$AAa?$AAd@ 1000dd58     ohcdmdd2:chw.obj
 0001:0000cda0       ??_C@_1LE@DMMIGHJH@?$AA?$CB?$AAO?$AAH?$AAC?$AAI?$AA?5?$AA?9?$AA?5?$AAC?$AAH?$AAW?$AA?3?$AA?3?$AAU?$AAp?$AAd?$AAa?$AAt?$AAe?$AAF?$AAr?$AAa?$AAm?$AAe?$AAC?$AAo?$AAu?$AAn?$AAt?$AAe?$AAr?$AA?5@ 1000dda0     ohcdmdd2:chw.obj
 0001:0000ce58       ??_C@_1FE@BHEOPEDO@?$AA?$CL?$AAC?$AAH?$AAW?$AA?3?$AA?3?$AAE?$AAn?$AAt?$AAe?$AAr?$AAe?$AAd?$AA?5?$AAU?$AAs?$AAb?$AAA?$AAd?$AAj?$AAu?$AAs?$AAt?$AAF?$AAr?$AAa?$AAm?$AAe?$AAL?$AAe?$AAn?$AAg@ 1000de58     ohcdmdd2:chw.obj
 0001:0000ceb0       ??_C@_1FE@POJMKFHF@?$AAR?$AAo?$AAo?$AAt?$AA?5?$AAh?$AAu?$AAb?$AA?0?$AA?5?$AAa?$AAf?$AAt?$AAe?$AAr?$AA?5?$AAr?$AAe?$AAs?$AAe?$AAt?$AA?5?$AA?$CG?$AA?5?$AAe?$AAn?$AAa?$AAb?$AAl?$AAe?$AA?0?$AA?5@ 1000deb0     ohcdmdd2:chw.obj
 0001:0000cf08       ??_C@_1NC@JPMEKABC@?$AAP?$AAE?$AAS?$AA?5?$AAi?$AAs?$AA?5?$AAn?$AAo?$AAt?$AA?5?$AAs?$AAe?$AAt?$AA?5?$AAO?$AAH?$AAC?$AAI?$AA?5?$AA7?$AA?4?$AA4?$AA?4?$AA4?$AA?4?$AA?5?$AAD?$AAe?$AAv?$AAi?$AAc@ 1000df08     ohcdmdd2:chw.obj
 0001:0000cfdc       ??_C@_1DG@GHFBFGDF@?$AAC?$AAH?$AAW?$AA?5?$AA?9?$AA?5?$AAD?$AAU?$AAM?$AAP?$AA?5?$AAR?$AAE?$AAG?$AAI?$AAS?$AAT?$AAE?$AAR?$AAS?$AA?5?$AAD?$AAO?$AAN?$AAE?$AA?6?$AA?$AA@ 1000dfdc     ohcdmdd2:chw.obj
 0001:0000d014       ??_C@_1DI@GCACGEGK@?$AAC?$AAH?$AAW?$AA?5?$AA?9?$AA?5?$AAD?$AAU?$AAM?$AAP?$AA?5?$AAR?$AAE?$AAG?$AAI?$AAS?$AAT?$AAE?$AAR?$AAS?$AA?5?$AAB?$AAE?$AAG?$AAI?$AAN?$AA?6?$AA?$AA@ 1000e014     ohcdmdd2:chw.obj
 0001:0000d050       ??_C@_1MI@DNHIJIEP@?$AAC?$AAT?$AAr?$AAa?$AAn?$AAs?$AAf?$AAe?$AAr?$AA?3?$AA?3?$AAS?$AAc?$AAh?$AAe?$AAd?$AAu?$AAl?$AAe?$AAT?$AAD?$AA?$CI?$AA?$CJ?$AA?$CI?$AA?$CF?$AAs?$AA?$CJ?$AA?3?$AA?3?$AAC?$AAh?$AAe@ 1000e050     ohcdmdd2:Transfer.obj
 0001:0000d118       ??_C@_1IE@DFGPBPBI@?$AAC?$AA?3?$AA?2?$AAy?$AAz?$AAk?$AAi?$AAq?$AAf?$AAe?$AA?2?$AAp?$AAu?$AAb?$AAl?$AAi?$AAc?$AA?2?$AAC?$AAO?$AAM?$AAM?$AAO?$AAN?$AA?2?$AAo?$AAa?$AAk?$AA?2?$AAd?$AAr?$AAi@ 1000e118     ohcdmdd2:Transfer.obj
 0001:0000d1a0       ??_C@_1IK@DIJFHKND@?$AAC?$AAT?$AAr?$AAa?$AAn?$AAs?$AAf?$AAe?$AAr?$AA?3?$AA?3?$AAS?$AAc?$AAh?$AAe?$AAd?$AAu?$AAl?$AAe?$AAT?$AAD?$AA?$CI?$AA?$CJ?$AA?$CI?$AA?$CF?$AAs?$AA?$CJ?$AA?3?$AAC?$AAo?$AAp?$AAy@ 1000e1a0     ohcdmdd2:Transfer.obj
 0001:0000d230       ??_C@_1JA@KGCFHEAD@?$AAC?$AAT?$AAr?$AAa?$AAn?$AAs?$AAf?$AAe?$AAr?$AA?3?$AA?3?$AAD?$AAo?$AAn?$AAe?$AAT?$AAD?$AA?$CI?$AA?$CJ?$AA?$CI?$AA?$CF?$AAs?$AA?$CJ?$AA?3?$AA?3?$AAe?$AAx?$AAc?$AAe?$AAp?$AAt?$AAi@ 1000e230     ohcdmdd2:Transfer.obj
 0001:0000d2c0       ??_C@_1FE@EINAKJAA@?$AAT?$AAD?$AAQ?$AAu?$AAe?$AAu?$AAe?$AA?3?$AA?3?$AAT?$AAD?$AAQ?$AAu?$AAe?$AAu?$AAe?$AA?5?$AA?9?$AA?5?$AAn?$AAo?$AA?5?$AAm?$AAe?$AAm?$AAo?$AAr?$AAy?$AA?5?$AAf?$AAo?$AAr@ 1000e2c0     ohcdmdd2:Transfer.obj
 0001:0000d314       ??_C@_1CE@PGNPLLNK@?$AAI?$AAs?$AAs?$AAu?$AAe?$AAT?$AAr?$AAa?$AAn?$AAs?$AAf?$AAe?$AAr?$AA?5?$AAT?$AAD?$AAs?$AA?$AA@ 1000e314     ohcdmdd2:Transfer.obj
 0001:0000d338       ??_C@_1JE@PAFHECGK@?$AAC?$AAT?$AAr?$AAa?$AAn?$AAs?$AAf?$AAe?$AAr?$AA?3?$AA?3?$AAC?$AAa?$AAn?$AAc?$AAe?$AAl?$AAe?$AAd?$AA?$CI?$AA?$CJ?$AA?$CI?$AA?$CF?$AAs?$AA?$CJ?$AA?3?$AA?3?$AAe?$AAx?$AAc?$AAe?$AAp@ 1000e338     ohcdmdd2:Transfer.obj
 0001:0000d3d0       ??_C@_1FG@KNHNOGCN@?$AAT?$AAD?$AAQ?$AAu?$AAe?$AAu?$AAe?$AA?3?$AA?3?$AAT?$AAD?$AAQ?$AAu?$AAe?$AAu?$AAe?$AA?5?$AA?9?$AA?5?$AAn?$AAo?$AA?5?$AAm?$AAe?$AAm?$AAo?$AAr?$AAy?$AA?5?$AAf?$AAo?$AAr@ 1000e3d0     ohcdmdd2:Transfer.obj
 0001:0000d428       ??_C@_1CG@OJHKLCFK@?$AAI?$AAs?$AAs?$AAu?$AAe?$AAT?$AAr?$AAa?$AAn?$AAs?$AAf?$AAe?$AAr?$AA?5?$AAI?$AAT?$AAD?$AAs?$AA?$AA@ 1000e428     ohcdmdd2:Transfer.obj
 0001:0000d47c       HcdPdd_DllMain             1000e47c f   s3c6410_ohci.obj
 0001:0000d4bc       ConfigureOHCICard          1000e4bc f   s3c6410_ohci.obj
 0001:0000d660       HcdPdd_Init                1000e660 f   s3c6410_ohci.obj
 0001:0000e3c0       HcdPdd_CheckConfigPower    1000f3c0 f   s3c6410_ohci.obj
 0001:0000e418       HcdPdd_PowerUp             1000f418 f   s3c6410_ohci.obj
 0001:0000e51c       HcdPdd_PowerDown           1000f51c f   s3c6410_ohci.obj
 0001:0000e5b4       HcdPdd_Deinit              1000f5b4 f   s3c6410_ohci.obj
 0001:0000e778       HcdPdd_Open                1000f778 f   s3c6410_ohci.obj
 0001:0000e7b8       HcdPdd_Close               1000f7b8 f   s3c6410_ohci.obj
 0001:0000e7e8       HcdPdd_Read                1000f7e8 f   s3c6410_ohci.obj
 0001:0000e828       HcdPdd_Write               1000f828 f   s3c6410_ohci.obj
 0001:0000e868       HcdPdd_Seek                1000f868 f   s3c6410_ohci.obj
 0001:0000e8a8       HcdPdd_IOControl           1000f8a8 f   s3c6410_ohci.obj
 0001:0000e908       HcdPdd_InitiatePowerUp     1000f908 f   s3c6410_ohci.obj
 0001:0000e9e4       DllMain                    1000f9e4 f   hcdlib:hcddrv.obj
 0001:0000eed8       HcdMdd_CreateMemoryObject  1000fed8 f   hcdlib:hcddrv.obj
 0001:0000f014       HcdMdd_CreateHcdObject     10010014 f   hcdlib:hcddrv.obj
 0001:0000f0f4       HcdMdd_DestroyHcdObject    100100f4 f   hcdlib:hcddrv.obj
 0001:0000f174       HcdMdd_DestroyMemoryObject 10010174 f   hcdlib:hcddrv.obj
 0001:0000f1e4       HcdMdd_PowerUp             100101e4 f   hcdlib:hcddrv.obj
 0001:0000f234       HcdMdd_PowerDown           10010234 f   hcdlib:hcddrv.obj
 0001:0000f284       HcdMdd_SetCapability       10010284 f   hcdlib:hcddrv.obj
 0001:0000f2e0       HCD_Init                   100102e0 f   hcdlib:hcddrv.obj
 0001:0000f590       HCD_PowerUp                10010590 f   hcdlib:hcddrv.obj
 0001:0000f5ac       HCD_PowerDown              100105ac f   hcdlib:hcddrv.obj
 0001:0000f5c8       HCD_Deinit                 100105c8 f   hcdlib:hcddrv.obj
 0001:0000f630       HCD_Open                   10010630 f   hcdlib:hcddrv.obj
 0001:0000f66c       HCD_Close                  1001066c f   hcdlib:hcddrv.obj
 0001:0000f6a0       HCD_Read                   100106a0 f   hcdlib:hcddrv.obj
 0001:0000f6dc       HCD_Write                  100106dc f   hcdlib:hcddrv.obj
 0001:0000f718       HCD_Seek                   10010718 f   hcdlib:hcddrv.obj
 0001:0000f754       HCD_IOControl              10010754 f   hcdlib:hcddrv.obj
 0001:0000f7ac       ?InittedOK@CPhysMem@@QAAHXZ 100107ac f i hcdlib:hcddrv.obj
 0001:0000f7dc       ??_GCPhysMem@@QAAPAXI@Z    100107dc f i hcdlib:hcddrv.obj
 0001:0000f820       ??0CHcd@@QAA@XZ            10010820 f   hcdlib:hcd.obj
 0001:0000f90c       ??1CHcd@@UAA@XZ            1001090c f   hcdlib:hcd.obj
 0001:0000fa40       ?SetRootHub@CHcd@@QAAPAVCRootHub@@PAV2@@Z 10010a40 f   hcdlib:hcd.obj
 0001:0000faa0       ?OpenPipe@CHcd@@QAAHIPBU_USB_ENDPOINT_DESCRIPTOR@@PAI@Z 10010aa0 f   hcdlib:hcd.obj
 0001:0000fc04       ?ClosePipe@CHcd@@QAAHII@Z  10010c04 f   hcdlib:hcd.obj
 0001:0000fd30       ?IssueTransfer@CHcd@@QAAHIIP6AKPAX@Z0KPBXKKPBKK0K2PAK4PAH44@Z 10010d30 f   hcdlib:hcd.obj
 0001:0000ff20       ?AbortTransfer@CHcd@@QAAHIIP6AKPAX@Z0PBX@Z 10010f20 f   hcdlib:hcd.obj
 0001:00010084       ?IsPipeHalted@CHcd@@QAAHIIPAH@Z 10011084 f   hcdlib:hcd.obj
 0001:000101ec       ?ResetPipe@CHcd@@QAAHII@Z  100111ec f   hcdlib:hcd.obj
 0001:00010318       ?DisableDevice@CHcd@@UAAHIH@Z 10011318 f   hcdlib:hcd.obj
 0001:00010440       ?SuspendResume@CHcd@@UAAHIH@Z 10011440 f   hcdlib:hcd.obj
 0001:0001056c       ?BusChildIoControl@CHcd@@QAAHKPAXK@Z 1001156c f   hcdlib:hcd.obj
 0001:000105e0       ?BusIoControl@CHcd@@QAAHKPAXK0KPAK@Z 100115e0 f   hcdlib:hcd.obj
 0001:00010674       ?GetOTGCapabilityBits@CHcd@@QAAEXZ 10011674 f   hcdlib:hcd.obj
 0001:000106d4       ??0LockObject@@QAA@XZ      100116d4 f i hcdlib:hcd.obj
 0001:00010704       ?WaitForPortStatusChange@CHcd@@UAAHPAX@Z 10011704 f i hcdlib:hcd.obj
 0001:0001072c       ?SuspendHC@CHcd@@UAAHXZ    1001172c f i hcdlib:hcd.obj
 0001:00010754       ?ResumeNotification@CHcd@@MAAHXZ 10011754 f i hcdlib:hcd.obj
 0001:00010848       ?Lock@LockObject@@QAAXXZ   10011848 f i hcdlib:hcd.obj
 0001:00010864       ?Unlock@LockObject@@QAAXXZ 10011864 f i hcdlib:hcd.obj
 0001:00010880       ??_GCHcd@@UAAPAXI@Z        10011880 f i hcdlib:hcd.obj
 0001:00010880       ??_ECHcd@@UAAPAXI@Z        10011880 f i hcdlib:hcd.obj
 0001:000108c4       ??1LockObject@@QAA@XZ      100118c4 f i hcdlib:hcd.obj
 0001:000108e0       ??0CPhysMem@@QAA@KKPAE0@Z  100118e0 f   hcdlib:cphysmem.obj
 0001:00010f88       ?ReInit@CPhysMem@@QAAXXZ   10011f88 f   hcdlib:cphysmem.obj
 0001:000114dc       ?ValidateHeaps@CPhysMem@@AAAHH@Z 100124dc f   hcdlib:cphysmem.obj
 0001:00011ec4       ?CreateNewNode@CPhysMem@@AAAPAUtMEMLIST@@KKK@Z 10012ec4 f   hcdlib:cphysmem.obj
 0001:000120dc       ?DeleteNode@CPhysMem@@AAAHPAUtMEMLIST@@@Z 100130dc f   hcdlib:cphysmem.obj
 0001:00012168       ?FindFreeBlock@CPhysMem@@AAAPAUtMEMLIST@@KH@Z 10013168 f   hcdlib:cphysmem.obj
 0001:000122e0       ?AddNodeToFreeList@CPhysMem@@AAAHPAUtMEMLIST@@H@Z 100132e0 f   hcdlib:cphysmem.obj
 0001:00012628       ??1CPhysMem@@QAA@XZ        10013628 f   hcdlib:cphysmem.obj
 0001:000126cc       ?FreeList@CPhysMem@@AAAHPAPAUtMEMLIST@@@Z 100136cc f   hcdlib:cphysmem.obj
 0001:000127b0       ?AllocateSpecialMemory@CPhysMem@@QAAHKQAPAE@Z 100137b0 f   hcdlib:cphysmem.obj
 0001:00012988       ?FreeSpecialMemory@CPhysMem@@QAAXQAE@Z 10013988 f   hcdlib:cphysmem.obj
 0001:00012a4c       ?AllocateMemory@CPhysMem@@QAAHPBGKQAPAEKPAH@Z 10013a4c f   hcdlib:cphysmem.obj
 0001:00013248       ?FreeMemory@CPhysMem@@QAAXQAEKK@Z 10014248 f   hcdlib:cphysmem.obj
 0001:00013744       ?ReleaseBlockedCalls@CPhysMem@@QAAHXZ 10014744 f   hcdlib:cphysmem.obj
 0001:00013790       ?InitializeListHead@@YAXPAUtMEMLIST@@@Z 10014790 f i hcdlib:cphysmem.obj
 0001:000137c4       ?FirstNode@@YAPAUtMEMLIST@@PAU1@@Z 100147c4 f i hcdlib:cphysmem.obj
 0001:000137f4       ?InsertNodeBefore@@YAXPAUtMEMLIST@@0@Z 100147f4 f i hcdlib:cphysmem.obj
 0001:00013858       ?PaToVa@CPhysMem@@QAAPAEK@Z 10014858 f i hcdlib:cphysmem.obj
 0001:000138d4       ?RemoveNode@@YAXPAUtMEMLIST@@@Z 100148d4 f i hcdlib:cphysmem.obj
 0001:00013948       ?VaToPa@CPhysMem@@QAAKPAE@Z 10014948 f i hcdlib:cphysmem.obj
 0001:000139c4       PulseEvent                 100149c4 f i hcdlib:cphysmem.obj
 0001:000139fc       ??0CDeviceGlobal@@QAA@XZ   100149fc f   hcdlib:cdevice.obj
 0001:00013af4       ??1CDeviceGlobal@@QAA@XZ   10014af4 f   hcdlib:cdevice.obj
 0001:00013b34       ?Initialize@CDeviceGlobal@@QAAHPAX@Z 10014b34 f   hcdlib:cdevice.obj
 0001:00013f74       ?DeInitialize@CDeviceGlobal@@QAAXXZ 10014f74 f   hcdlib:cdevice.obj
 0001:00014148       ?ReserveAddress@CDeviceGlobal@@QAAHAAE@Z 10015148 f   hcdlib:cdevice.obj
 0001:0001435c       ?FreeAddress@CDeviceGlobal@@QAAXE@Z 1001535c f   hcdlib:cdevice.obj
 0001:00014514       ?TransferDoneCallbackSetEvent@CDevice@@KAKPAX@Z 10015514 f   hcdlib:cdevice.obj
 0001:0001458c       ??0CDevice@@QAA@EABU_USB_DEVICE_INFO@@HEQAVCDeviceGlobal@@QAVCHub@@@Z 1001558c f   hcdlib:cdevice.obj
 0001:00014790       ??1CDevice@@UAA@XZ         10015790 f   hcdlib:cdevice.obj
 0001:00014b10       ?CreateUsbConfigurationStructure@CDevice@@QBAHAAU_NON_CONST_USB_CONFIGURATION@@QAEI@Z 10015b10 f   hcdlib:cdevice.obj
 0001:00015714       ?DeleteUsbConfigurationStructure@CDevice@@QBAXAAU_NON_CONST_USB_CONFIGURATION@@@Z 10016714 f   hcdlib:cdevice.obj
 0001:00015a28       ?AllocatePipeArray@CDevice@@IAAHXZ 10016a28 f   hcdlib:cdevice.obj
 0001:00015f44       ?DisableDevice@CDevice@@UAA?AW4HCD_REQUEST_STATUS@@IH@Z 10016f44 f   hcdlib:cdevice.obj
 0001:00016048       ?SuspendResume@CDevice@@UAA?AW4HCD_REQUEST_STATUS@@IH@Z 10017048 f   hcdlib:cdevice.obj
 0001:0001620c       ?DumpDeviceDescriptor@CDevice@@QBAXQAU_USB_DEVICE_DESCRIPTOR@@@Z 1001720c f   hcdlib:cdevice.obj
 0001:0001669c       ?DumpConfigDescriptor@CDevice@@QBAXQAU_USB_CONFIGURATION_DESCRIPTOR@@@Z 1001769c f   hcdlib:cdevice.obj
 0001:00016a80       ?DumpInterfaceDescriptor@CDevice@@QBAXQAU_USB_INTERFACE_DESCRIPTOR@@@Z 10017a80 f   hcdlib:cdevice.obj
 0001:00016d80       ?DumpEndpointDescriptor@CDevice@@QBAXQAU_USB_ENDPOINT_DESCRIPTOR@@@Z 10017d80 f   hcdlib:cdevice.obj
 0001:00017118       ?DumpExtendedBytes@CDevice@@QBAXQAEK@Z 10018118 f   hcdlib:cdevice.obj
 0001:000172dc       ??0CHub@@QAA@EABU_USB_DEVICE_INFO@@HEABU_USB_HUB_DESCRIPTOR@@QAVCHcd@@QAV0@@Z 100182dc f   hcdlib:cdevice.obj
 0001:00017540       ??1CHub@@UAA@XZ            10018540 f   hcdlib:cdevice.obj
 0001:000177e4       ?HubStatusChangeThreadStub@CHub@@KAKPAX@Z 100187e4 f   hcdlib:cdevice.obj
 0001:00017818       ?HubStatusChangeThread@CHub@@AAAKXZ 10018818 f   hcdlib:cdevice.obj
 0001:000185f8       ?DumpHubDescriptor@CHub@@SAXQAU_USB_HUB_DESCRIPTOR@@@Z 100195f8 f   hcdlib:cdevice.obj
 0001:00018bd8       ?AttachDevice@CHub@@IAAXEH@Z 10019bd8 f   hcdlib:cdevice.obj
 0001:0001b53c       ?GetDescriptor@CHub@@IAAHQAVCPipeAbs@@EEEGPAXK@Z 1001c53c f   hcdlib:cdevice.obj
 0001:0001bb04       ?DetachDownstreamDeviceThreadStub@CHub@@KAKPAX@Z 1001cb04 f   hcdlib:cdevice.obj
 0001:0001bb38       ?DetachDownstreamDeviceThread@CHub@@IAAKXZ 1001cb38 f   hcdlib:cdevice.obj
 0001:0001bcb4       ?DetachDevice@CHub@@IAAXE@Z 1001ccb4 f   hcdlib:cdevice.obj
 0001:0001c280       ?AllocateDeviceArray@CHub@@IAAHXZ 1001d280 f   hcdlib:cdevice.obj
 0001:0001c5b0       ?HandleDetach@CHub@@UAAXXZ 1001d5b0 f   hcdlib:cdevice.obj
 0001:0001cccc       ?OpenPipe@CHub@@UAA?AW4HCD_REQUEST_STATUS@@IQBU_USB_ENDPOINT_DESCRIPTOR@@QAI@Z 1001dccc f   hcdlib:cdevice.obj
 0001:0001cf88       ?ClosePipe@CHub@@UAA?AW4HCD_REQUEST_STATUS@@II@Z 1001df88 f   hcdlib:cdevice.obj
 0001:0001d24c       ?IssueTransfer@CHub@@UAA?AW4HCD_REQUEST_STATUS@@IIQ6AKPAX@ZQAXKQBXKKQBKK2K3QAK5QAH55@Z 1001e24c f   hcdlib:cdevice.obj
 0001:0001d590       ?AbortTransfer@CHub@@UAA?AW4HCD_REQUEST_STATUS@@IIQ6AKPAX@ZQAXQBX@Z 1001e590 f   hcdlib:cdevice.obj
 0001:0001d868       ?IsPipeHalted@CHub@@UAA?AW4HCD_REQUEST_STATUS@@IIQAH@Z 1001e868 f   hcdlib:cdevice.obj
 0001:0001db34       ?ResetPipe@CHub@@UAA?AW4HCD_REQUEST_STATUS@@II@Z 1001eb34 f   hcdlib:cdevice.obj
 0001:0001ddf8       ?DisableDevice@CHub@@UAA?AW4HCD_REQUEST_STATUS@@IH@Z 1001edf8 f   hcdlib:cdevice.obj
 0001:0001e0c8       ?NotifyOnSuspendedResumed@CHub@@UAAHH@Z 1001f0c8 f   hcdlib:cdevice.obj
 0001:0001e1cc       ?SuspendResume@CHub@@UAA?AW4HCD_REQUEST_STATUS@@IH@Z 1001f1cc f   hcdlib:cdevice.obj
 0001:0001e49c       ?DisableOffStreamDevice@CHub@@UAAHIH@Z 1001f49c f   hcdlib:cdevice.obj
 0001:0001e760       ?SuspendResumeOffStreamDevice@CHub@@UAAHIH@Z 1001f760 f   hcdlib:cdevice.obj
 0001:0001ea88       ??0CRootHub@@QAA@ABU_USB_DEVICE_INFO@@HABU_USB_HUB_DESCRIPTOR@@QAVCHcd@@@Z 1001fa88 f   hcdlib:cdevice.obj
 0001:0001eb7c       ??1CRootHub@@UAA@XZ        1001fb7c f   hcdlib:cdevice.obj
 0001:0001ec34       ?EnterOperationalState@CRootHub@@UAAHQAVCPipeAbs@@@Z 1001fc34 f   hcdlib:cdevice.obj
 0001:0001ef70       ?PowerAllHubPorts@CRootHub@@EAAHXZ 1001ff70 f   hcdlib:cdevice.obj
 0001:0001f01c       ?WaitForPortStatusChange@CRootHub@@EAAHAAEAAU_USB_HUB_AND_PORT_STATUS@@@Z 1002001c f   hcdlib:cdevice.obj
 0001:0001f60c       ?GetStatus@CRootHub@@EAAHEAAU_USB_HUB_AND_PORT_STATUS@@@Z 1002060c f   hcdlib:cdevice.obj
 0001:0001f760       ?ResetAndEnablePort@CRootHub@@EAAHE@Z 10020760 f   hcdlib:cdevice.obj
 0001:0001f958       ?DisablePort@CRootHub@@EAAXE@Z 10020958 f   hcdlib:cdevice.obj
 0001:0001fa98       ?SetOrClearFeature@CRootHub@@EAAHGEG@Z 10020a98 f   hcdlib:cdevice.obj
 0001:0001fdd0       ?SetOrClearRemoteWakup@CRootHub@@EAAHH@Z 10020dd0 f   hcdlib:cdevice.obj
 0001:0001fdf8       ?OTGSwitchRoleEnable@CRootHub@@UAA?AW4HCD_REQUEST_STATUS@@I@Z 10020df8 f   hcdlib:cdevice.obj
 0001:000200f0       ??0CExternalHub@@QAA@EABU_USB_DEVICE_INFO@@HEABU_USB_HUB_DESCRIPTOR@@QAVCHcd@@QAVCHub@@@Z 100210f0 f   hcdlib:cdevice.obj
 0001:000201e4       ??1CExternalHub@@UAA@XZ    100211e4 f   hcdlib:cdevice.obj
 0001:0002029c       ?EnterOperationalState@CExternalHub@@UAAHQAVCPipeAbs@@@Z 1002129c f   hcdlib:cdevice.obj
 0001:0002082c       ?PowerAllHubPorts@CExternalHub@@EAAHXZ 1002182c f   hcdlib:cdevice.obj
 0001:00020a30       ?GetStatusChangeBitmap@CExternalHub@@AAAHAAK@Z 10021a30 f   hcdlib:cdevice.obj
 0001:00020f00       ?WaitForPortStatusChange@CExternalHub@@EAAHAAEAAU_USB_HUB_AND_PORT_STATUS@@@Z 10021f00 f   hcdlib:cdevice.obj
 0001:00021238       ?GetStatus@CExternalHub@@EAAHEAAU_USB_HUB_AND_PORT_STATUS@@@Z 10022238 f   hcdlib:cdevice.obj
 0001:00021694       ?ResetAndEnablePort@CExternalHub@@EAAHE@Z 10022694 f   hcdlib:cdevice.obj
 0001:000219ac       ?DisablePort@CExternalHub@@EAAXE@Z 100229ac f   hcdlib:cdevice.obj
 0001:00021aa0       ?SetOrClearFeature@CExternalHub@@EAAHGEG@Z 10022aa0 f   hcdlib:cdevice.obj
 0001:000220a4       ?SetOrClearRemoteWakup@CExternalHub@@EAAHH@Z 100230a4 f   hcdlib:cdevice.obj
 0001:00022444       ??0CFunction@@QAA@EABU_USB_DEVICE_INFO@@HEQAVCHcd@@QAVCHub@@@Z 10023444 f   hcdlib:cdevice.obj
 0001:000225a4       ??1CFunction@@UAA@XZ       100235a4 f   hcdlib:cdevice.obj
 0001:000226c8       ?EnterOperationalState@CFunction@@UAAHQAVCPipeAbs@@@Z 100236c8 f   hcdlib:cdevice.obj
 0001:00022bc0       ?NotifyOnSuspendedResumed@CFunction@@UAAHH@Z 10023bc0 f   hcdlib:cdevice.obj
 0001:00022c70       ?OpenPipe@CFunction@@UAA?AW4HCD_REQUEST_STATUS@@IQBU_USB_ENDPOINT_DESCRIPTOR@@QAI@Z 10023c70 f   hcdlib:cdevice.obj
 0001:00023550       ?ClosePipe@CFunction@@UAA?AW4HCD_REQUEST_STATUS@@II@Z 10024550 f   hcdlib:cdevice.obj
 0001:00023824       ?IssueTransfer@CFunction@@UAA?AW4HCD_REQUEST_STATUS@@IIQ6AKPAX@ZQAXKQBXKKQBKK2K3QAK5QAH55@Z 10024824 f   hcdlib:cdevice.obj
 0001:00023ae4       ?AbortTransfer@CFunction@@UAA?AW4HCD_REQUEST_STATUS@@IIQ6AKPAX@ZQAXQBX@Z 10024ae4 f   hcdlib:cdevice.obj
 0001:00023cb0       ?IsPipeHalted@CFunction@@UAA?AW4HCD_REQUEST_STATUS@@IIQAH@Z 10024cb0 f   hcdlib:cdevice.obj
 0001:00023efc       ?ResetPipe@CFunction@@UAA?AW4HCD_REQUEST_STATUS@@II@Z 10024efc f   hcdlib:cdevice.obj
 0001:000241b0       ?HandleDetach@CFunction@@EAAXXZ 100251b0 f   hcdlib:cdevice.obj
 0001:000245c8       ?SetOrClearFeature@CFunction@@AAAHEGEG@Z 100255c8 f   hcdlib:cdevice.obj
 0001:00024cc0       ?OTGSwitchRoleEnable@CFunction@@UAA?AW4HCD_REQUEST_STATUS@@I@Z 10025cc0 f   hcdlib:cdevice.obj
 0001:00024e4c       ?UnlockCountdown@Countdown@@QAAXXZ 10025e4c f i hcdlib:cdevice.obj
 0001:00024e80       SetEvent                   10025e80 f i hcdlib:cdevice.obj
 0001:00024eb8       ?OTGSwitchRoleEnable@CDevice@@UAA?AW4HCD_REQUEST_STATUS@@I@Z 10025eb8 f i hcdlib:cdevice.obj
 0001:00024ee0       ?ResumeNotification@CDevice@@UAAHXZ 10025ee0 f i hcdlib:cdevice.obj
 0001:00024f08       ?NotifyOnSuspendedResumed@CDevice@@UAAHH@Z 10025f08 f i hcdlib:cdevice.obj
 0001:00024f30       ??_GCDevice@@UAAPAXI@Z     10025f30 f i hcdlib:cdevice.obj
 0001:00024f30       ??_ECDevice@@UAAPAXI@Z     10025f30 f i hcdlib:cdevice.obj
 0001:00024f74       ?FreeAddress@CDevice@@QAAXE@Z 10025f74 f i hcdlib:cdevice.obj
 0001:00024f9c       ?ResumeNotification@CHub@@UAAHXZ 10025f9c f i hcdlib:cdevice.obj
 0001:00025058       ??_GCHub@@UAAPAXI@Z        10026058 f i hcdlib:cdevice.obj
 0001:00025058       ??_ECHub@@UAAPAXI@Z        10026058 f i hcdlib:cdevice.obj
 0001:0002509c       ResetEvent                 1002609c f i hcdlib:cdevice.obj
 0001:000250d4       ?GetOTGPort@CHcd@@QAAEXZ   100260d4 f i hcdlib:cdevice.obj
 0001:00025104       ?Addr0LockEntry@CDeviceGlobal@@QAA?AW4e_CritSec_Status@@K@Z 10026104 f i hcdlib:cdevice.obj
 0001:00025140       ?Addr0LockLeave@CDeviceGlobal@@QAAXXZ 10026140 f i hcdlib:cdevice.obj
 0001:00025160       ?GetpUSBDSelectConfigurationProc@CDeviceGlobal@@QAAP6AHPBU_USB_DEVICE@@PAE@ZXZ 10026160 f i hcdlib:cdevice.obj
 0001:00025190       ?ReserveAddress@CDevice@@QAAHAAE@Z 10026190 f i hcdlib:cdevice.obj
 0001:000251d0       ?ObjCountdownDec@CDeviceGlobal@@QAAXXZ 100261d0 f i hcdlib:cdevice.obj
 0001:000251f0       GetCurrentThread           100261f0 f i hcdlib:cdevice.obj
 0001:00025208       ?ObjCountdownInc@CDeviceGlobal@@QAAHXZ 10026208 f i hcdlib:cdevice.obj
 0001:00025240       ?Addr0LockPrepareDelete@CDeviceGlobal@@QAAXXZ 10026240 f i hcdlib:cdevice.obj
 0001:00025260       ?GetDeviceAddress@CDevice@@QAAEXZ 10026260 f i hcdlib:cdevice.obj
 0001:00025290       ?GetDeviceType@CRootHub@@EBAPBGXZ 10026290 f i hcdlib:cdevice.obj
 0001:000252c0       ??_ECRootHub@@UAAPAXI@Z    100262c0 f i hcdlib:cdevice.obj
 0001:000252c0       ??_GCRootHub@@UAAPAXI@Z    100262c0 f i hcdlib:cdevice.obj
 0001:00025304       ?GetDeviceType@CExternalHub@@EBAPBGXZ 10026304 f i hcdlib:cdevice.obj
 0001:00025334       ??_GCExternalHub@@UAAPAXI@Z 10026334 f i hcdlib:cdevice.obj
 0001:00025334       ??_ECExternalHub@@UAAPAXI@Z 10026334 f i hcdlib:cdevice.obj
 0001:00025378       ?GetDeviceType@CFunction@@EBAPBGXZ 10026378 f i hcdlib:cdevice.obj
 0001:000253a8       ??_ECFunction@@UAAPAXI@Z   100263a8 f i hcdlib:cdevice.obj
 0001:000253a8       ??_GCFunction@@UAAPAXI@Z   100263a8 f i hcdlib:cdevice.obj
 0001:000253ec       ?GetpUSBDAttachProc@CDeviceGlobal@@QAAP6AHPAXIIPBU_USB_DEVICE@@PAPAX@ZXZ 100263ec f i hcdlib:cdevice.obj
 0001:0002541c       ?GetpHcdContext@CDeviceGlobal@@QAAPAXXZ 1002641c f i hcdlib:cdevice.obj
 0001:0002544c       ?GetpUSBDSuspendedResumed@CDeviceGlobal@@QAAP6AHPAXH@ZXZ 1002644c f i hcdlib:cdevice.obj
 0001:0002547c       ?GetpUSBDDetachProc@CDeviceGlobal@@QAAP6AHPAX@ZXZ 1002647c f i hcdlib:cdevice.obj
 0001:000254ac       ?IsOTGSwitchRoleSupported@CHcd@@QAAHXZ 100264ac f i hcdlib:cdevice.obj
 0001:00025504       ?EnterCritSec_Ex@CritSec_Ex@@QAA?AW4e_CritSec_Status@@K@Z 10026504 f   hcdlib:sync.obj
 0001:00025740       ?LeaveCritSec_Ex@CritSec_Ex@@QAAXXZ 10026740 f   hcdlib:sync.obj
 0001:00025854       ??0CritSec_Ex@@QAA@XZ      10026854 f   hcdlib:sync.obj
 0001:000258e0       ?Initialize@CritSec_Ex@@QAAXXZ 100268e0 f   hcdlib:sync.obj
 0001:00025948       ?PrepareDeleteCritSec_Ex@CritSec_Ex@@QAAXXZ 10026948 f   hcdlib:sync.obj
 0001:000259cc       ??1CritSec_Ex@@QAA@XZ      100269cc f   hcdlib:sync.obj
 0001:00025af0       ??0Countdown@@QAA@K@Z      10026af0 f   hcdlib:sync.obj
 0001:00025b88       ?IncrCountdown@Countdown@@QAAHXZ 10026b88 f   hcdlib:sync.obj
 0001:00025c28       ?DecrCountdown@Countdown@@QAAXXZ 10026c28 f   hcdlib:sync.obj
 0001:00025ce4       ?LockCountdown@Countdown@@AAAXXZ 10026ce4 f   hcdlib:sync.obj
 0001:00025d18       ?WaitForCountdown@Countdown@@QAAXH@Z 10026d18 f   hcdlib:sync.obj
 0001:00025dac       ??1Countdown@@QAA@XZ       10026dac f   hcdlib:sync.obj
 0001:00025de4       GetCurrentThreadId         10026de4 f i hcdlib:sync.obj
 0001:00025e10       NKDbgPrintfW               10026e10 f   coredll:COREDLL.dll
 0001:00025e20       DeleteCriticalSection      10026e20 f   coredll:COREDLL.dll
 0001:00025e30       InitializeCriticalSection  10026e30 f   coredll:COREDLL.dll
 0001:00025e40       FreeIntChainHandler        10026e40 f   coredll:COREDLL.dll
 0001:00025e50       RegCloseKey                10026e50 f   coredll:COREDLL.dll
 0001:00025e60       RegQueryValueExW           10026e60 f   coredll:COREDLL.dll
 0001:00025e70       KernelLibIoControl         10026e70 f   coredll:COREDLL.dll
 0001:00025e80       LoadIntChainHandler        10026e80 f   coredll:COREDLL.dll
 0001:00025e90       DDKReg_GetIsrInfo          10026e90 f   coredll:COREDLL.dll
 0001:00025ea0       DDKReg_GetWindowInfo       10026ea0 f   coredll:COREDLL.dll
 0001:00025eb0       RegOpenKeyExW              10026eb0 f   coredll:COREDLL.dll
 0001:00025ec0       DisableThreadLibraryCalls  10026ec0 f   coredll:COREDLL.dll
 0001:00025ed0       RegisterDbgZones           10026ed0 f   coredll:COREDLL.dll
 0001:00025ee0       LeaveCriticalSection       10026ee0 f   coredll:COREDLL.dll
 0001:00025ef0       EnterCriticalSection       10026ef0 f   coredll:COREDLL.dll
 0001:00025f00       OpenDeviceKey              10026f00 f   coredll:COREDLL.dll
 0001:00025f10       SetLastError               10026f10 f   coredll:COREDLL.dll
 0001:00025f20       CreateEventW               10026f20 f   coredll:COREDLL.dll
 0001:00025f30       AllocPhysMem               10026f30 f   coredll:COREDLL.dll
 0001:00025f40       LocalAlloc                 10026f40 f   coredll:COREDLL.dll
 0001:00025f50       FreePhysMem                10026f50 f   coredll:COREDLL.dll
 0001:00025f60       CloseHandle                10026f60 f   coredll:COREDLL.dll
 0001:00025f70       LocalFree                  10026f70 f   coredll:COREDLL.dll
 0001:00025f80       WaitForSingleObject        10026f80 f   coredll:COREDLL.dll
 0001:00025f90       GetTickCount               10026f90 f   coredll:COREDLL.dll
 0001:00025fa0       EventModify                10026fa0 f   coredll:COREDLL.dll
 0001:00025fb0       GetProcAddressW            10026fb0 f   coredll:COREDLL.dll
 0001:00025fc0       LoadDriver                 10026fc0 f   coredll:COREDLL.dll
 0001:00025fd0       FreeLibrary                10026fd0 f   coredll:COREDLL.dll
 0001:00025fe0       Sleep                      10026fe0 f   coredll:COREDLL.dll
 0001:00025ff0       CeGetThreadPriority        10026ff0 f   coredll:COREDLL.dll
 0001:00026000       CeSetThreadPriority        10027000 f   coredll:COREDLL.dll
 0001:00026010       CreateThread               10027010 f   coredll:COREDLL.dll
 0001:00026020       WaitForMultipleObjects     10027020 f   coredll:COREDLL.dll
 0001:00026030       __GetUserKData             10027030 f   coredll:COREDLL.dll
 0001:00026040       RaiseException             10027040 f   coredll:COREDLL.dll
 0001:00026050       BusTransBusAddrToVirtual   10027050 f   ceddk:CEDDK.dll
 0001:00026060       CloseBusAccessHandle       10027060 f   ceddk:CEDDK.dll
 0001:00026070       CreateBusAccessHandle      10027070 f   ceddk:CEDDK.dll
 0001:00026080       HalFreeCommonBuffer        10027080 f   ceddk:CEDDK.dll
 0001:00026090       MmUnmapIoSpace             10027090 f   ceddk:CEDDK.dll
 0001:000260a0       HalAllocateCommonBuffer    100270a0 f   ceddk:CEDDK.dll
 0001:000260b0       BusTransBusAddrToStatic    100270b0 f   ceddk:CEDDK.dll
 0001:000260c0       MmMapIoSpace               100270c0 f   ceddk:CEDDK.dll
 0001:000260d0       BusChildIoControl          100270d0 f   ceddk:CEDDK.dll
 0001:000260e0       BusIoControl               100270e0 f   ceddk:CEDDK.dll
 0001:000260f0       _DllMainCRTStartup         100270f0 f   corelib0:pegdmain.obj
 0001:00026298       __security_init_cookie     10027298 f   corelib0:seccinit.obj
 0001:00026360       __GSHandlerCheck           10027360 f   corelib0:gshandler.obj
 0001:000263a8       __GSHandlerCheckCommon     100273a8 f   corelib0:gshandler.obj
 0001:00026450       __security_check_cookie    10027450 f   corelib0:armsecgs.obj
 0001:00026464       __gsfailure                10027464 f   corelib0:armsecgs.obj
 0001:000264a8       exit                       100274a8 f   corelib0:cexit.obj
 0001:00026628       _exit                      10027628 f   corelib0:cexit.obj
 0001:0002664c       _cexit                     1002764c f   corelib0:cexit.obj
 0001:00026668       _c_exit                    10027668 f   corelib0:cexit.obj
 0001:00026684       GetCurrentProcess          10027684 f i corelib0:cexit.obj
 0001:0002669c       _initterm                  1002769c f   corelib0:crt0dat.obj
 0001:000266f0       _cinit                     100276f0 f   corelib0:crt0dat.obj
 0001:0002672c       _onexit                    1002772c f   corelib0:onexit.obj
 0001:00026a30       atexit                     10027a30 f   corelib0:onexit.obj
 0001:00026a84       memcpy                     10027a84 f   corelib1:COREDLL.dll
 0001:00026a94       free                       10027a94 f   corelib1:COREDLL.dll
 0001:00026aa4       malloc                     10027aa4 f   corelib1:COREDLL.dll
 0001:00026ab4       wcsncpy                    10027ab4 f   corelib1:COREDLL.dll
 0001:00026ac4       __rt_udiv                  10027ac4 f   corelib1:COREDLL.dll
 0001:00026ad4       ??2@YAPAXI@Z               10027ad4 f   corelib1:COREDLL.dll
 0001:00026ae4       ??3@YAXPAX@Z               10027ae4 f   corelib1:COREDLL.dll
 0001:00026af4       _purecall                  10027af4 f   corelib1:COREDLL.dll
 0001:00026b04       memset                     10027b04 f   corelib1:COREDLL.dll
 0001:00026b14       wcscpy                     10027b14 f   corelib1:COREDLL.dll
 0001:00026b24       wcslen                     10027b24 f   corelib1:COREDLL.dll
 0001:00026b34       ??_V@YAXPAX@Z              10027b34 f   corelib1:COREDLL.dll
 0001:00026b44       ??_U@YAPAXI@Z              10027b44 f   corelib1:COREDLL.dll
 0001:00026b54       memcmp                     10027b54 f   corelib1:COREDLL.dll
 0001:00026b64       __C_specific_handler       10027b64 f   corelib1:COREDLL.dll
 0001:00026b74       _XcptFilter                10027b74 f   corelib1:COREDLL.dll
 0001:00026b84       __security_gen_cookie2     10027b84 f   corelib1:COREDLL.dll
 0001:00026b94       __report_gsfailure         10027b94 f   corelib1:COREDLL.dll
 0001:00026ba4       realloc                    10027ba4 f   corelib1:COREDLL.dll
 0001:00026bb4       _msize                     10027bb4 f   corelib1:COREDLL.dll
 0001:00026bc4       ??0COhcd@@QAA@PAXPAVCPhysMem@@PBGRAEK@Z 10027bc4 f   ohcdmdd2:cohcd.obj
 0001:00026cc4       ??1COhcd@@UAA@XZ           10027cc4 f   ohcdmdd2:cohcd.obj
 0001:00026e40       ?DeviceDeInitialize@COhcd@@UAAXXZ 10027e40 f   ohcdmdd2:cohcd.obj
 0001:00026fa0       ?DeviceInitialize@COhcd@@UAAHXZ 10027fa0 f   ohcdmdd2:cohcd.obj
 0001:000272a8       ?CreateHCDObject@@YAPAVCHcd@@PAXPAVCPhysMem@@PBGRAEK@Z 100282a8 f   ohcdmdd2:cohcd.obj
 0001:0002732c       ?GetNumberOfDownStreamPort@CHW@@UAAEXZ 1002832c f i ohcdmdd2:cohcd.obj
 0001:0002736c       ?GetCapability@CHW@@UAAKXZ 1002836c f i ohcdmdd2:cohcd.obj
 0001:0002739c       ?SignalCheckForDoneTransfers@COhcd@@UAAXK@Z 1002839c f i ohcdmdd2:cohcd.obj
 0001:000273c0       ??_ECOhcd@@UAAPAXI@Z       100283c0 f i ohcdmdd2:cohcd.obj
 0001:000273c0       ??_GCOhcd@@UAAPAXI@Z       100283c0 f i ohcdmdd2:cohcd.obj
 0001:00027404       ?GetRootHub@CHcd@@QAAPAVCRootHub@@XZ 10028404 f i ohcdmdd2:cohcd.obj
 0001:00027434       ??0CHCCAera@@QAA@QAVCPhysMem@@@Z 10028434 f   ohcdmdd2:cpipe.obj
 0001:00027550       ??1CHCCAera@@QAA@XZ        10028550 f   ohcdmdd2:cpipe.obj
 0001:00027584       ?Initialize@CHCCAera@@QAAHQAVCOhcd@@@Z 10028584 f   ohcdmdd2:cpipe.obj
 0001:00027d74       ?DeInitialize@CHCCAera@@QAAXXZ 10028d74 f   ohcdmdd2:cpipe.obj
 0001:00027f34       ?SignalCheckForDoneTransfers@CHCCAera@@QAAXK@Z 10028f34 f   ohcdmdd2:cpipe.obj
 0001:000281cc       ?CheckForDoneTransfersThreadStub@CHCCAera@@CAKPAX@Z 100291cc f   ohcdmdd2:cpipe.obj
 0001:00028200       ?CheckForDoneTransfersThread@CHCCAera@@AAAKXZ 10029200 f   ohcdmdd2:cpipe.obj
 0001:00028554       ?AddToBusyPipeList@CHCCAera@@QAAHQAVCPipe@@H@Z 10029554 f   ohcdmdd2:cpipe.obj
 0001:0002870c       ?RemoveFromBusyPipeList@CHCCAera@@QAAXQAVCPipe@@@Z 1002970c f   ohcdmdd2:cpipe.obj
 0001:0002887c       ?HandleReclamationLoadChange@CHCCAera@@QAAXH@Z 1002987c f   ohcdmdd2:cpipe.obj
 0001:0002894c       ??0CPipe@@QAA@QBU_USB_ENDPOINT_DESCRIPTOR@@HEQAVCOhcd@@@Z 1002994c f   ohcdmdd2:cpipe.obj
 0001:00028b40       ??1CPipe@@UAA@XZ           10029b40 f   ohcdmdd2:cpipe.obj
 0001:00028c4c       ?IsPipeHalted@CPipe@@UAA?AW4HCD_REQUEST_STATUS@@QAH@Z 10029c4c f   ohcdmdd2:cpipe.obj
 0001:00028dc8       ?ClearHaltedFlag@CPipe@@UAAXXZ 10029dc8 f   ohcdmdd2:cpipe.obj
 0001:00028fa0       ?GetMemoryAllocationFlags@CPipe@@MBAKXZ 10029fa0 f   ohcdmdd2:cpipe.obj
 0001:00028fc8       ??0CQueuedPipe@@QAA@QBU_USB_ENDPOINT_DESCRIPTOR@@HEQAVCOhcd@@@Z 10029fc8 f   ohcdmdd2:cpipe.obj
 0001:00029108       ??1CQueuedPipe@@UAA@XZ     1002a108 f   ohcdmdd2:cpipe.obj
 0001:000291ec       ?ClosePipe@CQueuedPipe@@UAA?AW4HCD_REQUEST_STATUS@@XZ 1002a1ec f   ohcdmdd2:cpipe.obj
 0001:000298b8       ?IssueTransfer@CQueuedPipe@@UAA?AW4HCD_REQUEST_STATUS@@EQ6AKPAX@ZQAXKQBXKKQBKK2K3QAK5QAH55@Z 1002a8b8 f   ohcdmdd2:cpipe.obj
 0001:00029e88       ?AbortTransfer@CQueuedPipe@@UAA?AW4HCD_REQUEST_STATUS@@Q6AKPAX@ZQAXPBX@Z 1002ae88 f   ohcdmdd2:cpipe.obj
 0001:0002a504       ?AbortQueue@CQueuedPipe@@AAAXXZ 1002b504 f   ohcdmdd2:cpipe.obj
 0001:0002a560       ?CheckForDoneTransfers@CQueuedPipe@@UAAHTTDLINK@@@Z 1002b560 f   ohcdmdd2:cpipe.obj
 0001:0002adac       ?UpdateInterruptQHTreeLoad@CQueuedPipe@@MAAXEH@Z 1002bdac f   ohcdmdd2:cpipe.obj
 0001:0002af48       ??0CBulkPipe@@QAA@QBU_USB_ENDPOINT_DESCRIPTOR@@HEQAVCOhcd@@@Z 1002bf48 f   ohcdmdd2:cpipe.obj
 0001:0002b0d8       ??1CBulkPipe@@UAA@XZ       1002c0d8 f   ohcdmdd2:cpipe.obj
 0001:0002b190       ?OpenPipe@CBulkPipe@@UAA?AW4HCD_REQUEST_STATUS@@XZ 1002c190 f   ohcdmdd2:cpipe.obj
 0001:0002b69c       ?GetListHead@CBulkPipe@@EAAPAKH@Z 1002c69c f   ohcdmdd2:cpipe.obj
 0001:0002b6f0       ?UpdateListControl@CBulkPipe@@UAAXHH@Z 1002c6f0 f   ohcdmdd2:cpipe.obj
 0001:0002b720       ?AreTransferParametersValid@CBulkPipe@@EBAHPBUSTRANSFER@@@Z 1002c720 f   ohcdmdd2:cpipe.obj
 0001:0002b934       ?ScheduleTransfer@CBulkPipe@@EAA?AW4HCD_REQUEST_STATUS@@XZ 1002c934 f   ohcdmdd2:cpipe.obj
 0001:0002bc14       ??0CControlPipe@@QAA@QBU_USB_ENDPOINT_DESCRIPTOR@@HEQAVCOhcd@@@Z 1002cc14 f   ohcdmdd2:cpipe.obj
 0001:0002bd64       ??1CControlPipe@@UAA@XZ    1002cd64 f   ohcdmdd2:cpipe.obj
 0001:0002be1c       ?OpenPipe@CControlPipe@@UAA?AW4HCD_REQUEST_STATUS@@XZ 1002ce1c f   ohcdmdd2:cpipe.obj
 0001:0002c2d8       ?ChangeMaxPacketSize@CControlPipe@@UAAXG@Z 1002d2d8 f   ohcdmdd2:cpipe.obj
 0001:0002c6f8       ?GetListHead@CControlPipe@@EAAPAKH@Z 1002d6f8 f   ohcdmdd2:cpipe.obj
 0001:0002c74c       ?UpdateListControl@CControlPipe@@UAAXHH@Z 1002d74c f   ohcdmdd2:cpipe.obj
 0001:0002c77c       ?AreTransferParametersValid@CControlPipe@@EBAHPBUSTRANSFER@@@Z 1002d77c f   ohcdmdd2:cpipe.obj
 0001:0002ca74       ?ScheduleTransfer@CControlPipe@@EAA?AW4HCD_REQUEST_STATUS@@XZ 1002da74 f   ohcdmdd2:cpipe.obj
 0001:0002ce24       ??0CInterruptPipe@@QAA@QBU_USB_ENDPOINT_DESCRIPTOR@@HEQAVCOhcd@@@Z 1002de24 f   ohcdmdd2:cpipe.obj
 0001:0002cf78       ??1CInterruptPipe@@UAA@XZ  1002df78 f   ohcdmdd2:cpipe.obj
 0001:0002d030       ?ComputeLoad@CInterruptPipe@@ABAHH@Z 1002e030 f   ohcdmdd2:cpipe.obj
 0001:0002d274       ?OpenPipe@CInterruptPipe@@UAA?AW4HCD_REQUEST_STATUS@@XZ 1002e274 f   ohcdmdd2:cpipe.obj
 0001:0002da98       ?UpdateInterruptQHTreeLoad@CInterruptPipe@@EAAXEH@Z 1002ea98 f   ohcdmdd2:cpipe.obj
 0001:0002dba0       ?GetListHead@CInterruptPipe@@EAAPAKH@Z 1002eba0 f   ohcdmdd2:cpipe.obj
 0001:0002dc10       ?UpdateListControl@CInterruptPipe@@UAAXHH@Z 1002ec10 f   ohcdmdd2:cpipe.obj
 0001:0002dc40       ?AreTransferParametersValid@CInterruptPipe@@EBAHPBUSTRANSFER@@@Z 1002ec40 f   ohcdmdd2:cpipe.obj
 0001:0002de9c       ?ScheduleTransfer@CInterruptPipe@@EAA?AW4HCD_REQUEST_STATUS@@XZ 1002ee9c f   ohcdmdd2:cpipe.obj
 0001:0002e248       ??0CIsochronousPipe@@QAA@QBU_USB_ENDPOINT_DESCRIPTOR@@HEQAVCOhcd@@@Z 1002f248 f   ohcdmdd2:cpipe.obj
 0001:0002e42c       ??1CIsochronousPipe@@UAA@XZ 1002f42c f   ohcdmdd2:cpipe.obj
 0001:0002e5a0       ?OpenPipe@CIsochronousPipe@@UAA?AW4HCD_REQUEST_STATUS@@XZ 1002f5a0 f   ohcdmdd2:cpipe.obj
 0001:0002eb70       ?ClosePipe@CIsochronousPipe@@UAA?AW4HCD_REQUEST_STATUS@@XZ 1002fb70 f   ohcdmdd2:cpipe.obj
 0001:0002ef84       ?IssueTransfer@CIsochronousPipe@@UAA?AW4HCD_REQUEST_STATUS@@EQ6AKPAX@ZQAXKQBXKKQBKK2K3QAK5QAH55@Z 1002ff84 f   ohcdmdd2:cpipe.obj
 0001:0002f768       ?AbortTransfer@CIsochronousPipe@@UAA?AW4HCD_REQUEST_STATUS@@Q6AKPAX@ZQAXPBX@Z 10030768 f   ohcdmdd2:cpipe.obj
 0001:0002fc78       ?GetListHead@CIsochronousPipe@@EAAPAKH@Z 10030c78 f   ohcdmdd2:cpipe.obj
 0001:0002fcd0       ?UpdateListControl@CIsochronousPipe@@UAAXHH@Z 10030cd0 f   ohcdmdd2:cpipe.obj
 0001:0002fd00       ?AreTransferParametersValid@CIsochronousPipe@@EBAHPBUSTRANSFER@@@Z 10030d00 f   ohcdmdd2:cpipe.obj
 0001:0002ff78       ?GetMemoryAllocationFlags@CIsochronousPipe@@EBAKXZ 10030f78 f   ohcdmdd2:cpipe.obj
 0001:0002ffa0       ?ScheduleTransfer@CIsochronousPipe@@EAA?AW4HCD_REQUEST_STATUS@@XZ 10030fa0 f   ohcdmdd2:cpipe.obj
 0001:00030228       ?CheckForDoneTransfers@CIsochronousPipe@@UAAHTTDLINK@@@Z 10031228 f   ohcdmdd2:cpipe.obj
 0001:0003049c       ?CreateBulkPipe@@YAPAVCPipeAbs@@QBU_USB_ENDPOINT_DESCRIPTOR@@HEQAVCHcd@@@Z 1003149c f   ohcdmdd2:cpipe.obj
 0001:00030518       ?CreateControlPipe@@YAPAVCPipeAbs@@QBU_USB_ENDPOINT_DESCRIPTOR@@HEQAVCHcd@@@Z 10031518 f   ohcdmdd2:cpipe.obj
 0001:00030594       ?CreateInterruptPipe@@YAPAVCPipeAbs@@QBU_USB_ENDPOINT_DESCRIPTOR@@HEQAVCHcd@@@Z 10031594 f   ohcdmdd2:cpipe.obj
 0001:00030610       ?CreateIsochronousPipe@@YAPAVCPipeAbs@@QBU_USB_ENDPOINT_DESCRIPTOR@@HEQAVCHcd@@@Z 10031610 f   ohcdmdd2:cpipe.obj
 0001:0003068c       ?GetQHPhysAddr@CHCCAera@@QAAKPAU_ED@@@Z 1003168c f i ohcdmdd2:cpipe.obj
 0001:0003074c       ?GetPipe@CTransfer@@QBAPAVCQueuedPipe@@XZ 1003174c f i ohcdmdd2:cpipe.obj
 0001:0003077c       ?GetPipe@CITransfer@@QBAPAVCIsochronousPipe@@XZ 1003177c f i ohcdmdd2:cpipe.obj
 0001:000307ac       ??0CPipeAbs@@QAA@E@Z       100317ac f i ohcdmdd2:cpipe.obj
 0001:000307f4       ?ChangeMaxPacketSize@CPipeAbs@@UAAXG@Z 100317f4 f i ohcdmdd2:cpipe.obj
 0001:0003084c       ??_GCPipeAbs@@UAAPAXI@Z    1003184c f i ohcdmdd2:cpipe.obj
 0001:0003084c       ??_ECPipeAbs@@UAAPAXI@Z    1003184c f i ohcdmdd2:cpipe.obj
 0001:00030890       ??1CPipeAbs@@UAA@XZ        10031890 f i ohcdmdd2:cpipe.obj
 0001:000308b4       ?GetType@CPipe@@UAA?AW4PIPE_TYPE@@XZ 100318b4 f i ohcdmdd2:cpipe.obj
 0001:000308dc       ??_ECPipe@@UAAPAXI@Z       100318dc f i ohcdmdd2:cpipe.obj
 0001:000308dc       ??_GCPipe@@UAAPAXI@Z       100318dc f i ohcdmdd2:cpipe.obj
 0001:00030920       ?GetTdSize@CQueuedPipe@@UBA?BHXZ 10031920 f i ohcdmdd2:cpipe.obj
 0001:00030948       ??_GCQueuedPipe@@UAAPAXI@Z 10031948 f i ohcdmdd2:cpipe.obj
 0001:00030948       ??_ECQueuedPipe@@UAAPAXI@Z 10031948 f i ohcdmdd2:cpipe.obj
 0001:0003098c       ?GetNextTransfer@CTransfer@@QBAPAV1@XZ 1003198c f i ohcdmdd2:cpipe.obj
 0001:000309bc       ?GetSTransfer@CTransfer@@QAAPAUSTRANSFER@@XZ 100319bc f i ohcdmdd2:cpipe.obj
 0001:000309e4       ?GetQHPhysAddr@CPipe@@IAAKPAU_ED@@@Z 100319e4 f i ohcdmdd2:cpipe.obj
 0001:00030ab8       ??_GCTransfer@@QAAPAXI@Z   10031ab8 f i ohcdmdd2:cpipe.obj
 0001:00030afc       ??1CTransfer@@QAA@XZ       10031afc f i ohcdmdd2:cpipe.obj
 0001:00030b64       ?SetNextTransfer@CTransfer@@QAAPAV1@PAV1@@Z 10031b64 f i ohcdmdd2:cpipe.obj
 0001:00030bac       ?GetTDQueueHeadPhys@TDQueue@@QBAKXZ 10031bac f i ohcdmdd2:cpipe.obj
 0001:00030c1c       ?GetFirstError@CTransfer@@QAAKXZ 10031c1c f i ohcdmdd2:cpipe.obj
 0001:00030c4c       ?GetTDQueueTailPhysAddr@TDQueue@@QBAKXZ 10031c4c f i ohcdmdd2:cpipe.obj
 0001:00030cbc       ?GetTDQueueHead@TDQueue@@QBAPAU_TD@@XZ 10031cbc f i ohcdmdd2:cpipe.obj
 0001:00030d2c       ?GetType@CBulkPipe@@UAA?AW4PIPE_TYPE@@XZ 10031d2c f i ohcdmdd2:cpipe.obj
 0001:00030d54       ?GetPipeType@CBulkPipe@@UBAPBGXZ 10031d54 f i ohcdmdd2:cpipe.obj
 0001:00030d80       ??_ECBulkPipe@@UAAPAXI@Z   10031d80 f i ohcdmdd2:cpipe.obj
 0001:00030d80       ??_GCBulkPipe@@UAAPAXI@Z   10031d80 f i ohcdmdd2:cpipe.obj
 0001:00030dc4       ?IsTDQueueFull@TDQueue@@QBAHXZ 10031dc4 f i ohcdmdd2:cpipe.obj
 0001:00030e30       ?IncIndex@TDQueue@@QBAKK@Z 10031e30 f i ohcdmdd2:cpipe.obj
 0001:00030e90       ?GetType@CControlPipe@@UAA?AW4PIPE_TYPE@@XZ 10031e90 f i ohcdmdd2:cpipe.obj
 0001:00030eb8       ?GetPipeType@CControlPipe@@UBAPBGXZ 10031eb8 f i ohcdmdd2:cpipe.obj
 0001:00030ee8       ??_ECControlPipe@@UAAPAXI@Z 10031ee8 f i ohcdmdd2:cpipe.obj
 0001:00030ee8       ??_GCControlPipe@@UAAPAXI@Z 10031ee8 f i ohcdmdd2:cpipe.obj
 0001:00030f2c       ?QueueReInit@TDQueue@@QAAHK@Z 10031f2c f i ohcdmdd2:cpipe.obj
 0001:00030fb0       ?GetMaxTDDataSize@TDQueue@@QBAKXZ 10031fb0 f i ohcdmdd2:cpipe.obj
 0001:00030fe0       ?GetType@CInterruptPipe@@UAA?AW4PIPE_TYPE@@XZ 10031fe0 f i ohcdmdd2:cpipe.obj
 0001:00031008       ?GetPipeType@CInterruptPipe@@UBAPBGXZ 10032008 f i ohcdmdd2:cpipe.obj
 0001:00031038       ??_GCInterruptPipe@@UAAPAXI@Z 10032038 f i ohcdmdd2:cpipe.obj
 0001:00031038       ??_ECInterruptPipe@@UAAPAXI@Z 10032038 f i ohcdmdd2:cpipe.obj
 0001:0003107c       ?GetType@CIsochronousPipe@@UAA?AW4PIPE_TYPE@@XZ 1003207c f i ohcdmdd2:cpipe.obj
 0001:000310a4       ?GetTdSize@CIsochronousPipe@@UBA?BHXZ 100320a4 f i ohcdmdd2:cpipe.obj
 0001:000310cc       ?GetPipeType@CIsochronousPipe@@UBAPBGXZ 100320cc f i ohcdmdd2:cpipe.obj
 0001:000310fc       ??_ECIsochronousPipe@@UAAPAXI@Z 100320fc f i ohcdmdd2:cpipe.obj
 0001:000310fc       ??_GCIsochronousPipe@@UAAPAXI@Z 100320fc f i ohcdmdd2:cpipe.obj
 0001:00031140       ?GetITDQueueHeadPhys@ITDQueue@@QBAKXZ 10032140 f i ohcdmdd2:cpipe.obj
 0001:000311b0       ?GetSTransfer@CITransfer@@QAAPAUSTRANSFER@@XZ 100321b0 f i ohcdmdd2:cpipe.obj
 0001:000311d8       ?SetNextTransfer@CITransfer@@QAAPAV1@PAV1@@Z 100321d8 f i ohcdmdd2:cpipe.obj
 0001:00031220       ??_GCITransfer@@QAAPAXI@Z  10032220 f i ohcdmdd2:cpipe.obj
 0001:00031264       ??1CITransfer@@QAA@XZ      10032264 f i ohcdmdd2:cpipe.obj
 0001:000312cc       ?IsStartQueue@CITransfer@@QBAHXZ 100322cc f i ohcdmdd2:cpipe.obj
 0001:0003131c       ?GetNextTransfer@CITransfer@@QBAPAV1@XZ 1003231c f i ohcdmdd2:cpipe.obj
 0001:0003134c       ?IsCompleteQueue@CITransfer@@QBAHXZ 1003234c f i ohcdmdd2:cpipe.obj
 0001:000313a8       ?IsITDQueueFull@ITDQueue@@QBAHXZ 100323a8 f i ohcdmdd2:cpipe.obj
 0001:00031414       ?IncIndex@ITDQueue@@QBAKK@Z 10032414 f i ohcdmdd2:cpipe.obj
 0001:00031474       ?GetITDQueueTailPhysAddr@ITDQueue@@QBAKXZ 10032474 f i ohcdmdd2:cpipe.obj
 0001:000314e4       ?GetITDQueueHead@ITDQueue@@QBAPAU_ITD@@XZ 100324e4 f i ohcdmdd2:cpipe.obj
 0001:00031554       ??0CHW@@QAA@SAEKQAVCPhysMem@@PAX@Z 10032554 f   ohcdmdd2:chw.obj
 0001:000316f4       ??1CHW@@UAA@XZ             100326f4 f   ohcdmdd2:chw.obj
 0001:00031734       ?Initialize@CHW@@UAAHXZ    10032734 f   ohcdmdd2:chw.obj
 0001:00032238       ?DeInitialize@CHW@@UAAXXZ  10033238 f   ohcdmdd2:chw.obj
 0001:00032438       ?EnterOperationalState@CHW@@QAAXXZ 10033438 f   ohcdmdd2:chw.obj
 0001:0003253c       ?StopHostController@CHW@@QAAXXZ 1003353c f   ohcdmdd2:chw.obj
 0001:000325c0       ?ListControl@CHW@@QAAXKHH@Z 100335c0 f   ohcdmdd2:chw.obj
 0001:00032898       ?CeResumeThreadStub@CHW@@CAKPAX@Z 10033898 f   ohcdmdd2:chw.obj
 0001:000328cc       ?CeResumeThread@CHW@@AAAKXZ 100338cc f   ohcdmdd2:chw.obj
 0001:00032abc       ?PowerMgmtCallback@CHW@@UAAXH@Z 10033abc f   ohcdmdd2:chw.obj
 0001:00032b98       ?SuspendHC@CHW@@UAAHXZ     10033b98 f   ohcdmdd2:chw.obj
 0001:00032c6c       ?SuspendHostController@CHW@@AAAXXZ 10033c6c f   ohcdmdd2:chw.obj
 0001:00032cc0       ?ResumeHostController@CHW@@AAAXXZ 10033cc0 f   ohcdmdd2:chw.obj
 0001:00032d38       ?SetCapability@CHW@@UAAKK@Z 10033d38 f   ohcdmdd2:chw.obj
 0001:00032f80       ?UsbInterruptThreadStub@CHW@@CAKPAX@Z 10033f80 f   ohcdmdd2:chw.obj
 0001:00032fb4       ?UsbInterruptThread@CHW@@AAAKXZ 10033fb4 f   ohcdmdd2:chw.obj
 0001:000333cc       ?UpdateFrameCounter@CHW@@AAAXXZ 100343cc f   ohcdmdd2:chw.obj
 0001:000334c4       ?GetFrameNumber@CHW@@UAAHPAK@Z 100344c4 f   ohcdmdd2:chw.obj
 0001:00033524       ?WaitOneFrame@CHW@@QAAHXZ  10034524 f   ohcdmdd2:chw.obj
 0001:00033618       ?GetFrameLength@CHW@@UAAHPAG@Z 10034618 f   ohcdmdd2:chw.obj
 0001:00033670       ?SetFrameLength@CHW@@UAAHPAXG@Z 10034670 f   ohcdmdd2:chw.obj
 0001:000336a0       ?StopAdjustingFrame@CHW@@UAAHXZ 100346a0 f   ohcdmdd2:chw.obj
 0001:000336d8       ?UsbAdjustFrameLengthThreadStub@CHW@@CAKPAX@Z 100346d8 f   ohcdmdd2:chw.obj
 0001:0003370c       ?UsbAdjustFrameLengthThread@CHW@@AAAKXZ 1003470c f   ohcdmdd2:chw.obj
 0001:00033778       ?DidPortStatusChange@CHW@@UAAHE@Z 10034778 f   ohcdmdd2:chw.obj
 0001:000337d0       ?GetPortStatus@CHW@@UAAHEAAU_USB_HUB_AND_PORT_STATUS@@@Z 100347d0 f   ohcdmdd2:chw.obj
 0001:00033d64       ?GetRootHubDescriptor@CHW@@QAAXAAU_USB_HUB_DESCRIPTOR@@@Z 10034d64 f   ohcdmdd2:chw.obj
 0001:000340bc       ?RootHubFeature@CHW@@UAAHEEG@Z 100350bc f   ohcdmdd2:chw.obj
 0001:00034334       ?ResetAndEnablePort@CHW@@UAAHE@Z 10035334 f   ohcdmdd2:chw.obj
 0001:000345b4       ?DisablePort@CHW@@UAAXE@Z  100355b4 f   ohcdmdd2:chw.obj
 0001:000345f0       ?WaitForPortStatusChange@CHW@@UAAHPAX@Z 100355f0 f   ohcdmdd2:chw.obj
 0001:000346c8       ?DumpAllRegisters@CHW@@CAXXZ 100356c8 f   ohcdmdd2:chw.obj
 0001:00034770       ?SignalCheckForDoneTransfers@CHW@@UAAXK@Z 10035770 f i ohcdmdd2:chw.obj
 0001:000347c8       ??_GCHW@@UAAPAXI@Z         100357c8 f i ohcdmdd2:chw.obj
 0001:000347c8       ??_ECHW@@UAAPAXI@Z         100357c8 f i ohcdmdd2:chw.obj
 0001:00034814       ??0CTransfer@@QAA@QAVCQueuedPipe@@USTRANSFER@@PAV0@@Z 10035814 f   ohcdmdd2:Transfer.obj
 0001:000349ec       ?ScheduleTD@CTransfer@@QAAHXZ 100359ec f   ohcdmdd2:Transfer.obj
 0001:0003510c       ?DoneTD@CTransfer@@QAAHXZ  1003610c f   ohcdmdd2:Transfer.obj
 0001:000357c0       ?Canceled@CTransfer@@QAAHXZ 100367c0 f   ohcdmdd2:Transfer.obj
 0001:00035908       ??0TDQueue@@QAA@QAVCPhysMem@@KK@Z 10036908 f   ohcdmdd2:Transfer.obj
 0001:000359bc       ??1TDQueue@@QAA@XZ         100369bc f   ohcdmdd2:Transfer.obj
 0001:000359d8       ?QueueDeInit@TDQueue@@QAAXXZ 100369d8 f   ohcdmdd2:Transfer.obj
 0001:00035aa4       ?QueueInit@TDQueue@@QAAHXZ 10036aa4 f   ohcdmdd2:Transfer.obj
 0001:00035e2c       ?QueueDisable@TDQueue@@QAAHXZ 10036e2c f   ohcdmdd2:Transfer.obj
 0001:00035ef4       ?InitTDQueueTailTD@TDQueue@@QAAHPAVCTransfer@@PAVCQueuedPipe@@EKGKKH@Z 10036ef4 f   ohcdmdd2:Transfer.obj
 0001:000362a4       ??0CITransfer@@QAA@QAVCIsochronousPipe@@USTRANSFER@@PAV0@@Z 100372a4 f   ohcdmdd2:Transfer.obj
 0001:000363bc       ?ScheduleITD@CITransfer@@QAAHXZ 100373bc f   ohcdmdd2:Transfer.obj
 0001:000367f4       ?DoneITD@CITransfer@@QAAHXZ 100377f4 f   ohcdmdd2:Transfer.obj
 0001:00036eec       ?Canceled@CITransfer@@QAAHXZ 10037eec f   ohcdmdd2:Transfer.obj
 0001:0003703c       ?CheckFrame@CITransfer@@QBAHG@Z 1003803c f   ohcdmdd2:Transfer.obj
 0001:00037194       ??0ITDQueue@@QAA@QAVCPhysMem@@KK@Z 10038194 f   ohcdmdd2:Transfer.obj
 0001:000372fc       ??1ITDQueue@@QAA@XZ        100382fc f   ohcdmdd2:Transfer.obj
 0001:00037318       ?QueueDeInit@ITDQueue@@QAAXXZ 10038318 f   ohcdmdd2:Transfer.obj
 0001:000373e4       ?QueueInit@ITDQueue@@QAAHXZ 100383e4 f   ohcdmdd2:Transfer.obj
 0001:00037720       ?QueueDisable@ITDQueue@@QAAHXZ 10038720 f   ohcdmdd2:Transfer.obj
 0001:000377e8       ?InitITDQueueTailITD@ITDQueue@@QAAHPAVCITransfer@@PAVCIsochronousPipe@@GGPBKEKK@Z 100387e8 f   ohcdmdd2:Transfer.obj
 0001:00037c4c       ?AdvanceTDQueueTail@TDQueue@@QAAHXZ 10038c4c f i ohcdmdd2:Transfer.obj
 0001:00037cc4       ?GetTDQueueTailBufferVirtAddr@TDQueue@@QBAPAEXZ 10038cc4 f i ohcdmdd2:Transfer.obj
 0001:00037d3c       ?AdvanceTDQueueHead@TDQueue@@QAAHXZ 10038d3c f i ohcdmdd2:Transfer.obj
 0001:00037db4       ?IsTDQueueEmpty@TDQueue@@QBAHXZ 10038db4 f i ohcdmdd2:Transfer.obj
 0001:00037e10       ?GetTDQueueHeadBufferVirtAddr@TDQueue@@QBAPAEXZ 10038e10 f i ohcdmdd2:Transfer.obj
 0001:00037e88       ?GetED@CPipe@@QAAPAU_ED@@XZ 10038e88 f i ohcdmdd2:Transfer.obj
 0001:00037eb8       ?AdvanceITDQueueTail@ITDQueue@@QAAHXZ 10038eb8 f i ohcdmdd2:Transfer.obj
 0001:00037f30       ?GetITDQueueTailBufferVirtAddr@ITDQueue@@QBAPAEXZ 10038f30 f i ohcdmdd2:Transfer.obj
 0001:00037fa8       ?GetFrameNumberPerITD@ITDQueue@@QBAKXZ 10038fa8 f i ohcdmdd2:Transfer.obj
 0001:00037fd8       ?AdvanceITDQueueHead@ITDQueue@@QAAHXZ 10038fd8 f i ohcdmdd2:Transfer.obj
 0001:00038050       ?IsITDQueueEmpty@ITDQueue@@QBAHXZ 10039050 f i ohcdmdd2:Transfer.obj
 0001:000380ac       ?GetITDQueueHeadBufferVirtAddr@ITDQueue@@QBAPAEXZ 100390ac f i ohcdmdd2:Transfer.obj
 0001:00038124       InterlockedExchange        10039124 f   coredll:COREDLL.dll
 0001:00038134       TerminateProcess           10039134 f   coredll:COREDLL.dll
 0001:00038144       InterlockedCompareExchange 10039144 f   coredll:COREDLL.dll
 0001:00038154       InterruptInitialize        10039154 f   coredll:COREDLL.dll
 0001:00038164       InterruptDisable           10039164 f   coredll:COREDLL.dll
 0001:00038174       SetInterruptEvent          10039174 f   coredll:COREDLL.dll
 0001:00038184       KernelIoControl            10039184 f   coredll:COREDLL.dll
 0001:00038194       InterruptDone              10039194 f   coredll:COREDLL.dll
 0001:000381a4       __rt_sdiv                  100391a4 f   corelib1:COREDLL.dll
 0001:0003831c       __IMPORT_DESCRIPTOR_COREDLL 1003931c     coredll:COREDLL.dll
 0001:00038330       __IMPORT_DESCRIPTOR_CEDDK  10039330     ceddk:CEDDK.dll
 0001:00038344       __NULL_IMPORT_DESCRIPTOR   10039344     coredll:COREDLL.dll
 0002:00000000       __imp_CloseBusAccessHandle 1003a000     ceddk:CEDDK.dll
 0002:00000004       __imp_BusIoControl         1003a004     ceddk:CEDDK.dll
 0002:00000008       __imp_BusChildIoControl    1003a008     ceddk:CEDDK.dll
 0002:0000000c       __imp_MmMapIoSpace         1003a00c     ceddk:CEDDK.dll
 0002:00000010       __imp_BusTransBusAddrToStatic 1003a010     ceddk:CEDDK.dll
 0002:00000014       __imp_HalAllocateCommonBuffer 1003a014     ceddk:CEDDK.dll
 0002:00000018       __imp_MmUnmapIoSpace       1003a018     ceddk:CEDDK.dll
 0002:0000001c       __imp_HalFreeCommonBuffer  1003a01c     ceddk:CEDDK.dll
 0002:00000020       __imp_CreateBusAccessHandle 1003a020     ceddk:CEDDK.dll
 0002:00000024       __imp_BusTransBusAddrToVirtual 1003a024     ceddk:CEDDK.dll
 0002:00000028       \177CEDDK_NULL_THUNK_DATA  1003a028     ceddk:CEDDK.dll
 0002:0000002c       __imp_DisableThreadLibraryCalls 1003a02c     coredll:COREDLL.dll
 0002:00000030       __imp_RegisterDbgZones     1003a030     coredll:COREDLL.dll
 0002:00000034       __imp_LeaveCriticalSection 1003a034     coredll:COREDLL.dll
 0002:00000038       __imp_EnterCriticalSection 1003a038     coredll:COREDLL.dll
 0002:0000003c       __imp_OpenDeviceKey        1003a03c     coredll:COREDLL.dll
 0002:00000040       __imp_SetLastError         1003a040     coredll:COREDLL.dll
 0002:00000044       __imp_CreateEventW         1003a044     coredll:COREDLL.dll
 0002:00000048       __imp_AllocPhysMem         1003a048     coredll:COREDLL.dll
 0002:0000004c       __imp_LocalAlloc           1003a04c     coredll:COREDLL.dll
 0002:00000050       __imp_FreePhysMem          1003a050     coredll:COREDLL.dll
 0002:00000054       __imp_CloseHandle          1003a054     coredll:COREDLL.dll
 0002:00000058       __imp_LocalFree            1003a058     coredll:COREDLL.dll
 0002:0000005c       __imp_WaitForSingleObject  1003a05c     coredll:COREDLL.dll
 0002:00000060       __imp_RegOpenKeyExW        1003a060     coredll:COREDLL.dll
 0002:00000064       __imp_EventModify          1003a064     coredll:COREDLL.dll
 0002:00000068       __imp_GetProcAddressW      1003a068     coredll:COREDLL.dll
 0002:0000006c       __imp_LoadDriver           1003a06c     coredll:COREDLL.dll
 0002:00000070       __imp_FreeLibrary          1003a070     coredll:COREDLL.dll
 0002:00000074       __imp_Sleep                1003a074     coredll:COREDLL.dll
 0002:00000078       __imp_CeGetThreadPriority  1003a078     coredll:COREDLL.dll
 0002:0000007c       __imp_CeSetThreadPriority  1003a07c     coredll:COREDLL.dll
 0002:00000080       __imp_CreateThread         1003a080     coredll:COREDLL.dll
 0002:00000084       __imp_WaitForMultipleObjects 1003a084     coredll:COREDLL.dll
 0002:00000088       __imp___GetUserKData       1003a088     coredll:COREDLL.dll
 0002:0000008c       __imp_RaiseException       1003a08c     coredll:COREDLL.dll
 0002:00000090       __imp_DDKReg_GetWindowInfo 1003a090     coredll:COREDLL.dll
 0002:00000094       __imp_NKDbgPrintfW         1003a094     coredll:COREDLL.dll
 0002:00000098       __imp_DDKReg_GetIsrInfo    1003a098     coredll:COREDLL.dll
 0002:0000009c       __imp_LoadIntChainHandler  1003a09c     coredll:COREDLL.dll
 0002:000000a0       __imp_KernelLibIoControl   1003a0a0     coredll:COREDLL.dll
 0002:000000a4       __imp_RegQueryValueExW     1003a0a4     coredll:COREDLL.dll
 0002:000000a8       __imp_RegCloseKey          1003a0a8     coredll:COREDLL.dll
 0002:000000ac       __imp_FreeIntChainHandler  1003a0ac     coredll:COREDLL.dll
 0002:000000b0       __imp_InitializeCriticalSection 1003a0b0     coredll:COREDLL.dll
 0002:000000b4       __imp_DeleteCriticalSection 1003a0b4     coredll:COREDLL.dll
 0002:000000b8       __imp_GetTickCount         1003a0b8     coredll:COREDLL.dll
 0002:000000bc       __imp_memcpy               1003a0bc     corelib1:COREDLL.dll
 0002:000000c0       __imp_free                 1003a0c0     corelib1:COREDLL.dll
 0002:000000c4       __imp_malloc               1003a0c4     corelib1:COREDLL.dll
 0002:000000c8       __imp_wcsncpy              1003a0c8     corelib1:COREDLL.dll
 0002:000000cc       __imp___rt_udiv            1003a0cc     corelib1:COREDLL.dll
 0002:000000d0       __imp_??2@YAPAXI@Z         1003a0d0     corelib1:COREDLL.dll
 0002:000000d4       __imp_??3@YAXPAX@Z         1003a0d4     corelib1:COREDLL.dll
 0002:000000d8       __imp__purecall            1003a0d8     corelib1:COREDLL.dll
 0002:000000dc       __imp_memset               1003a0dc     corelib1:COREDLL.dll
 0002:000000e0       __imp_wcscpy               1003a0e0     corelib1:COREDLL.dll
 0002:000000e4       __imp_wcslen               1003a0e4     corelib1:COREDLL.dll
 0002:000000e8       __imp_??_V@YAXPAX@Z        1003a0e8     corelib1:COREDLL.dll
 0002:000000ec       __imp_??_U@YAPAXI@Z        1003a0ec     corelib1:COREDLL.dll
 0002:000000f0       __imp_memcmp               1003a0f0     corelib1:COREDLL.dll
 0002:000000f4       __imp___C_specific_handler 1003a0f4     corelib1:COREDLL.dll
 0002:000000f8       __imp__XcptFilter          1003a0f8     corelib1:COREDLL.dll
 0002:000000fc       __imp___security_gen_cookie2 1003a0fc     corelib1:COREDLL.dll
 0002:00000100       __imp___report_gsfailure   1003a100     corelib1:COREDLL.dll
 0002:00000104       __imp_realloc              1003a104     corelib1:COREDLL.dll
 0002:00000108       __imp__msize               1003a108     corelib1:COREDLL.dll
 0002:0000010c       __imp_InterlockedExchange  1003a10c     coredll:COREDLL.dll
 0002:00000110       __imp_TerminateProcess     1003a110     coredll:COREDLL.dll
 0002:00000114       __imp_InterlockedCompareExchange 1003a114     coredll:COREDLL.dll
 0002:00000118       __imp_InterruptInitialize  1003a118     coredll:COREDLL.dll
 0002:0000011c       __imp_InterruptDisable     1003a11c     coredll:COREDLL.dll
 0002:00000120       __imp_SetInterruptEvent    1003a120     coredll:COREDLL.dll
 0002:00000124       __imp_KernelIoControl      1003a124     coredll:COREDLL.dll
 0002:00000128       __imp_InterruptDone        1003a128     coredll:COREDLL.dll
 0002:0000012c       __imp___rt_sdiv            1003a12c     corelib1:COREDLL.dll
 0002:00000130       \177COREDLL_NULL_THUNK_DATA 1003a130     coredll:COREDLL.dll
 0002:00000190       dpCurSettings              1003a190     hcdlib:hcddrv.obj
 0002:000005d4       ?gc_HcdFuncs@@3U_HCD_FUNCS@@A 1003a5d4     hcdlib:hcddrv.obj
 0002:000006c8       ?cszDeviceType@?1??GetDeviceType@CRootHub@@EBAPBGXZ@4PBGB 1003a6c8     hcdlib:cdevice.obj
 0002:000006cc       ?cszDeviceType@?1??GetDeviceType@CExternalHub@@EBAPBGXZ@4PBGB 1003a6cc     hcdlib:cdevice.obj
 0002:000006d0       ?cszDeviceType@?1??GetDeviceType@CFunction@@EBAPBGXZ@4PBGB 1003a6d0     hcdlib:cdevice.obj
 0002:000006d4       __security_cookie          1003a6d4     corelib0:seccinit.obj
 0002:000006d8       __security_cookie_complement 1003a6d8     corelib0:seccinit.obj
 0002:00000790       ?cszPipeType@?1??GetPipeType@CControlPipe@@UBAPBGXZ@4PBGB 1003a790     ohcdmdd2:cpipe.obj
 0002:00000794       ?cszPipeType@?1??GetPipeType@CInterruptPipe@@UBAPBGXZ@4PBGB 1003a794     ohcdmdd2:cpipe.obj
 0002:00000798       ?cszPipeType@?1??GetPipeType@CIsochronousPipe@@UBAPBGXZ@4PBGB 1003a798     ohcdmdd2:cpipe.obj
 0002:00000850       g_pSysConReg               1003a850     s3c6410_ohci.obj
 0002:00000854       g_IstThreadPriority        1003a854     hcdlib:hcddrv.obj
 0002:00000858       ?g_CSection@@3UCRITICAL_SECTION@@A 1003a858     hcdlib:hcddrv.obj
 0002:0000086c       g_dwContext                1003a86c     hcdlib:hcddrv.obj
 0002:00000870       _exitflag                  1003a870     corelib0:cexit.obj
 0002:00000874       __onexitend                1003a874     <common>
 0002:00000878       __onexitbegin              1003a878     <common>
 0002:0000087c       g_pcsExit                  1003a87c     <common>
 0002:00000880       _pRawDllMain               1003a880     <common>

 entry point at        0001:000260f0

 Static symbols

 0001:0000d7a0       InitializeOHCI             1000e7a0 f   s3c6410_ohci.obj
 0001:0000e280       GetRegistryPhysicalMemSize 1000f280 f   s3c6410_ohci.obj
 0001:0000eaa8       HcdGetFrameNumber          1000faa8 f   hcdlib:hcddrv.obj
 0001:0000eafc       HcdGetFrameLength          1000fafc f   hcdlib:hcddrv.obj
 0001:0000eb50       HcdSetFrameLength          1000fb50 f   hcdlib:hcddrv.obj
 0001:0000eba8       HcdStopAdjustingFrame      1000fba8 f   hcdlib:hcddrv.obj
 0001:0000ebf8       HcdOpenPipe                1000fbf8 f   hcdlib:hcddrv.obj
 0001:0000ec40       HcdClosePipe               1000fc40 f   hcdlib:hcddrv.obj
 0001:0000ec84       HcdResetPipe               1000fc84 f   hcdlib:hcddrv.obj
 0001:0000ecc8       HcdIsPipeHalted            1000fcc8 f   hcdlib:hcddrv.obj
 0001:0000ed10       HcdIssueTransfer           1000fd10 f   hcdlib:hcddrv.obj
 0001:0000edd0       HcdAbortTransfer           1000fdd0 f   hcdlib:hcddrv.obj
 0001:0000ee28       HcdDisableDevice           1000fe28 f   hcdlib:hcddrv.obj
 0001:0000ee80       HcdSuspendResume           1000fe80 f   hcdlib:hcddrv.obj
 0001:0000f508       ?GetInterruptThreadPriority@@YAKPAG@Z 10010508 f   hcdlib:hcddrv.obj
 0001:00026144       _DllMainCRTStartupHelper   10027144 f   corelib0:pegdmain.obj
 0001:000264cc       doexit                     100274cc f   corelib0:cexit.obj
 0001:00026788       lockexit                   10027788 f   corelib0:onexit.obj
 0001:00026824       unlockexit                 10027824 f   corelib0:onexit.obj
 0001:00026850       _onexit_nolock             10027850 f   corelib0:onexit.obj
